******************************* Segment: Default *******************************
[ZP_START1]
0000: 00 00 00  - GORESTART,ERR_NOFOR,ERR_SYNTAX-2:.fill 3, $00
0003: 00 00 00  - MANTISSA_BYTES,GOSTROUT,BYTES_FP-1,BYTES_PER_ELEMENT-1,ERR_NOGOSUB-1:.fill 3, $00
0006: 00 00     - BYTES_PER_VARIABLE,GOAYINT,ERR_NODATA:.fill 2, $00
0008: 00 00     - FOR_STACK2,GOGIVEAYF,ERR_ILLQTY:.fill 2, $00

[ZP_START2]
000d: 00        - USR--3,NULL_MAX--3,MAX_EXPON--3,CRLF_2--3,ERR_OVERFLOW--3,ERR_MEMFULL--1,FOR_STACK1,CRLF_1,Z15:.fill 1, $00
000e: 00        - POSX,ERR_UNDEFSTAT:.fill 1, $00
000f: 00        - Z17:    .fill 1, $00
0010: 00        - BYTES_PER_FRAME,Z18,ERR_BADSUBS:.fill 1, $00
0011: 00 00     - LINNUM,TXPSV,ERR_REDIMD-1:.fill 2, $00

[ZP_START3]
005b: 00        - INPUTBUFFER--72,ERR_ZERODIV--71,ERR_ILLDIR--69,ERR_BADTYPE--67,ERR_STRLONG--65,NUM_TOKENS--63,ERR_FRMCPX--63,ERR_CANTCONT--61,ERR_UNDEFFN--59,SPACE_FOR_GOSUB--40,WIDTH2--35,WIDTH--19,CHARAC:.fill 1, $00
005c: 00        - ENDCHR: .fill 1, $00
005d: 00        - EOLPNTR:.fill 1, $00
005e: 00        - DIMFLG: .fill 1, $00
005f: 00        - VALTYP: .fill 1, $00
0060: 00        - DATAFLG:.fill 1, $00
0061: 00        - SUBFLG: .fill 1, $00
0062: 00        - INPUTFLG:.fill 1, $00
0063: 00        - CPRMASK:.fill 1, $00
0064: 00        - Z14:    .fill 1, $00

[ZP_START4]
0065: 00        - TEMPPT: .fill 1, $00
0066: 00 00     - LASTPT: .fill 2, $00
0068: 00 00 00 00 00 00 00 00 00                       - TEMPST: .fill 9, 00
0071: 00 00     - INDEX:  .fill 2, $00
0073: 00 00     - DEST:   .fill 2, $00
0075: 00 00 00 00                                      - RESULT,RESULT_LAST-3:.fill BYTES_FP, $00
0079: 00 00     - TXTTAB: .fill 2, $00
007b: 00 00     - VARTAB: .fill 2, $00
007d: 00 00     - ARYTAB: .fill 2, $00
007f: 00 00     - STREND: .fill 2, $00
0081: 00 00     - FRETOP: .fill 2, $00
0083: 00 00     - FRESPC: .fill 2, $00
0085: 00 00     - MEMSIZ: .fill 2, $00
0087: 00 00     - CURLIN,TOKEN_GOTO-1:.fill 2, $00
0089: 00 00     - OLDLIN: .fill 2, $00
008b: 00 00     - OLDTEXT,TOKEN_GOSUB-1:.fill 2, $00
008d: 00 00     - Z8C,TOKEN_REM-1:.fill 2, $00
008f: 00 00     - DATPTR: .fill 2, $00
0091: 00 00     - INPTR:  .fill 2, $00
0093: 00 00     - VARNAM: .fill 2, $00
0095: 00 00     - VARPNT: .fill 2, $00
0097: 00 00     - FORPNT,TOKEN_PRINT:.fill 2, $00
0099: 00 00     - LASTOP: .fill 2, $00
009b: 00        - CPRTYP: .fill 1, $00
009c: 00 00     - FNCNAM,TEMP3,TOKEN_TAB,TOKEN_TO-1:.fill 2, $00
009e: 00 00     - DSCPTR,TOKEN_FN,TOKEN_SPC-1:.fill 2, $00
00a0: 00 00     - DSCLEN,TOKEN_THEN,JMPADRS-1,TOKEN_NOT-1:.fill 2, $00
00a2: 00        - Z52,TOKEN_STEP:.fill 1, $00
00a3: 00        - ARGEXTENSION,TEMP1,TOKEN_PLUS:.fill 1, $00
00a4: 00 00     - HIGHDS,TOKEN_MINUS,TEMP1X:.fill 2, $00
00a6: 00 00     - HIGHTR: .fill 2, $00
00a8: 00        - INDX,TMPEXP,TEMP2:.fill 1, $00
00a9: 00        - EXPON:  .fill 1, $00
00aa: 00        - LOWTR,LOWTRX,TOKEN_GREATER:.fill 1, $00
00ab: 00        - EXPSGN,TOKEN_EQUAL:.fill 1, $00
00ac: 00 00 00 00                                      - FAC,TOKEN_SGN-1,FAC_LAST-3:.fill BYTES_FP, $00
00b0: 00        - FACSIGN:.fill 1, $00
00b1: 00        - SERLEN: .fill 1, $00
00b2: 00        - SHIFTSIGNEXT:.fill 1, $00
00b3: 00 00 00 00                                      - ARG,ARG_LAST-3:.fill BYTES_FP, $00
00b7: 00        - ARGSIGN:.fill 1, $00
00b8: 00 00     - STRNG1,SGNCPR,FACEXTENSION-1:.fill 2, $00
00ba: 00 00     - STRNG2: .fill 2, $00

[CODE]
a000: 39 a6     - CHRGET--40772,TOKEN_LEFTSTR--40767,CHRGOT--40766,TXTPTR--40765,CHRGOT2--40759,RNDSEED--40748,STACK_TOP--40708,STACK--40704,RAMSTART2--40448,BASICROM,TOKEN_ADDRESS_TABLE:.word END-1                   // a000
a002: 55 a5     -         .word FOR-1                   // a002
a004: 3f aa     -         .word NEXT-1                  // a004
a006: 0b a7     -         .word DATA-1                  // a006
a008: 22 a9     -         .word INPUT-1                 // a008
a00a: 00 ad     -         .word DIM-1                   // a00a
a00c: 4e a9     -         .word READ-1                  // a00c
a00e: b8 a7     -         .word LET-1                   // a00e
a010: b8 a6     -         .word GOTO-1                  // a010
a012: 90 a6     -         .word RUN-1                   // a012
a014: 3b a7     -         .word IF-1                    // a014
a016: 19 a6     -         .word RESTORE-1               // a016
a018: 9b a6     -         .word GOSUB-1
a01a: e5 a6     -         .word POP-1
a01c: 4e a7     -         .word REM-1
a01e: 37 a6     -         .word STOP-1
a020: 5e a7     -         .word ON-1
a022: 7a a6     -         .word NULL-1
a024: 31 b4     -         .word WAIT-1
a026: f3 ff     -         .word LOAD-1
a028: f6 ff     -         .word SAVE-1
a02a: dd af     -         .word DEF-1
a02c: 28 b4     -         .word POKE-1
a02e: 2e a8     -         .word PRINT-1
a030: 60 a6     -         .word CONT-1
a032: b4 a4     -         .word LIST-1
a034: 8b a6     -         .word CLEAR-1
a036: 60 a4     -         .word NEW-1
a038: d8 b7     - UNFNC:  .word SGN
a03a: 62 b8     -         .word INT
a03c: f5 b7     -         .word ABS
a03e: 0a 00     -         .word USR
a040: ad af     -         .word FRE
a042: ce af     -         .word POS
a044: ac ba     -         .word SQR
a046: c0 bb     -         .word RND
a048: bd b5     -         .word LOG
a04a: 1b bb     -         .word EXP
a04c: fc bb     -         .word COS
a04e: 03 bc     -         .word SIN
a050: 4c bc     -         .word TAN
a052: 99 bc     -         .word ATN
a054: 1e b4     -         .word PEEK
a056: 8c b3     -         .word LEN
a058: 8c b0     -         .word STR
a05a: bd b3     -         .word VAL
a05c: 9b b3     -         .word ASC
a05e: fc b2     -         .word CHRSTR
a060: 10 b3     -         .word LEFTSTR
a062: 3c b3     -         .word RIGHTSTR
a064: 47 b3     -         .word MIDSTR
a066: 79        - MATHTBL:.byte   $79
a067: 6e b4     -         .word   FADDT-1
a069: 79        -         .byte   $79
a06a: 57 b4     -         .word   FSUBT-1
a06c: 7b        -         .byte   $7B
a06d: fd b5     -         .word   FMULTT-1
a06f: 7b        -         .byte   $7B
a070: cc b6     -         .word   FDIVT-1
a072: 7f        -         .byte   $7F
a073: b5 ba     -         .word   FPWRT-1
a075: 50        -         .byte   $50
a076: 68 ac     -         .word   TAND-1
a078: 46        -         .byte   $46
a079: 65 ac     -         .word   OR-1
a07b: 7d        -         .byte   $7D
a07c: ee ba     -         .word   NEGOP-1
a07e: 5a        -         .byte   $5A
a07f: d7 ab     -         .word   EQUOP-1
a081: 64        -         .byte   $64
a082: 95 ac     -         .word   RELOPS-1
a084: 45 4e     - TOKEN_NAME_TABLE:.text "EN"
a086: c4        -         .byte  $80+'D'
a087: 46 4f     -         .text "FO"
a089: d2        -         .byte  $80+'R'
a08a: 4e 45 58  -         .text "NEX"
a08d: d4        -         .byte  $80+'T'
a08e: 44 41 54  -         .text "DAT"
a091: c1        -         .byte  $80+'A'
a092: 49 4e 50 55                                      -         .text "INPU"
a096: d4        -         .byte  $80+'T'
a097: 44 49     -         .text "DI"
a099: cd        -         .byte  $80+'M'
a09a: 52 45 41  -         .text "REA"
a09d: c4        -         .byte  $80+'D'
a09e: 4c 45     -         .text "LE"
a0a0: d4        -         .byte  $80+'T'
a0a1: 47 4f 54  -         .text "GOT"
a0a4: cf        -         .byte  $80+'O'
a0a5: 52 55     -         .text "RU"
a0a7: ce        -         .byte  $80+'N'
a0a8: 49        -         .text "I"
a0a9: c6        -         .byte  $80+'F'
a0aa: 52 45 53 54 4f 52                                -         .text "RESTOR"
a0b0: c5        -         .byte  $80+'E'
a0b1: 47 4f 53 55                                      -         .text "GOSU"
a0b5: c2        -         .byte  $80+'B'
a0b6: 52 45 54 55 52                                   -         .text "RETUR"
a0bb: ce        -         .byte  $80+'N'
a0bc: 52 45     -         .text "RE"
a0be: cd        -         .byte  $80+'M'
a0bf: 53 54 4f  -         .text "STO"
a0c2: d0        -         .byte  $80+'P'
a0c3: 4f        -         .text "O"
a0c4: ce        -         .byte  $80+'N'
a0c5: 4e 55 4c  -         .text "NUL"
a0c8: cc        -         .byte  $80+'L'
a0c9: 57 41 49  -         .text "WAI"
a0cc: d4        -         .byte  $80+'T'
a0cd: 4c 4f 41  -         .text "LOA"
a0d0: c4        -         .byte  $80+'D'
a0d1: 53 41 56  -         .text "SAV"
a0d4: c5        -         .byte  $80+'E'
a0d5: 44 45     -         .text "DE"
a0d7: c6        -         .byte  $80+'F'
a0d8: 50 4f 4b  -         .text "POK"
a0db: c5        -         .byte  $80+'E'
a0dc: 50 52 49 4e                                      -         .text "PRIN"
a0e0: d4        -         .byte  $80+'T'
a0e1: 43 4f 4e  -         .text "CON"
a0e4: d4        -         .byte  $80+'T'
a0e5: 4c 49 53  -         .text "LIS"
a0e8: d4        -         .byte  $80+'T'
a0e9: 43 4c 45 41                                      -         .text "CLEA"
a0ed: d2        -         .byte  $80+'R'
a0ee: 4e 45     -         .text "NE"
a0f0: d7        -         .byte  $80+'W'
a0f1: 54 41 42  -         .text "TAB"
a0f4: a8        -         .byte  $80+'('
a0f5: 54        -         .text "T"
a0f6: cf        -         .byte  $80+'O'
a0f7: 46        -         .text "F"
a0f8: ce        -         .byte  $80+'N'
a0f9: 53 50 43  -         .text "SPC"
a0fc: a8        -         .byte  $80+'('
a0fd: 54 48 45  -         .text "THE"
a100: ce        -         .byte  $80+'N'
a101: 4e 4f     -         .text "NO"
a103: d4        -         .byte  $80+'T'
a104: 53 54 45  -         .text "STE"
a107: d0        -         .byte  $80+'P'
a108: ab        -         .byte  $80+'+'
a109: ad        -         .byte  $80+'-'
a10a: aa        -         .byte  $80+'*'
a10b: af        -         .byte  $80+'/'
a10c: de        -         .byte  $80+'^'
a10d: 41 4e     -         .text "AN"
a10f: c4        -         .byte  $80+'D'
a110: 4f        -         .text "O"
a111: d2        -         .byte  $80+'R'
a112: be        -         .byte  $80+'>'
a113: bd        -         .byte  $80+'='
a114: bc        -         .byte  $80+'<'
a115: 53 47     -         .text "SG"
a117: ce        -         .byte  $80+'N'
a118: 49 4e     -         .text "IN"
a11a: d4        -         .byte  $80+'T'
a11b: 41 42     -         .text "AB"
a11d: d3        -         .byte  $80+'S'
a11e: 55 53     -         .text "US"
a120: d2        -         .byte  $80+'R'
a121: 46 52     -         .text "FR"
a123: c5        -         .byte  $80+'E'
a124: 50 4f     -         .text "PO"
a126: d3        -         .byte  $80+'S'
a127: 53 51     -         .text "SQ"
a129: d2        -         .byte  $80+'R'
a12a: 52 4e     -         .text "RN"
a12c: c4        -         .byte  $80+'D'
a12d: 4c 4f     -         .text "LO"
a12f: c7        -         .byte  $80+'G'
a130: 45 58     -         .text "EX"
a132: d0        -         .byte  $80+'P'
a133: 43 4f     -         .text "CO"
a135: d3        -         .byte  $80+'S'
a136: 53 49     -         .text "SI"
a138: ce        -         .byte  $80+'N'
a139: 54 41     -         .text "TA"
a13b: ce        -         .byte  $80+'N'
a13c: 41 54     -         .text "AT"
a13e: ce        -         .byte  $80+'N'
a13f: 50 45 45  -         .text "PEE"
a142: cb        -         .byte  $80+'K'
a143: 4c 45     -         .text "LE"
a145: ce        -         .byte  $80+'N'
a146: 53 54 52  -         .text "STR"
a149: a4        -         .byte  $80+'$'
a14a: 56 41     -         .text "VA"
a14c: cc        -         .byte  $80+'L'
a14d: 41 53     -         .text "AS"
a14f: c3        -         .byte  $80+'C'
a150: 43 48 52  -         .text "CHR"
a153: a4        -         .byte  $80+'$'
a154: 4c 45 46 54                                      -         .text "LEFT"
a158: a4        -         .byte  $80+'$'
a159: 52 49 47 48 54                                   -         .text "RIGHT"
a15e: a4        -         .byte  $80+'$'
a15f: 4d 49 44  -         .text "MID"
a162: a4        -         .byte  $80+'$'
a163: 00        -         .byte   0
a164: 4e c6     - ERROR_MESSAGES:.byte $4e, $c6 // nF
a166: 53 ce     -         .byte $53, $ce // sN
a168: 52 c7     -         .byte $52, $c7 // rG
a16a: 4f c4     -         .byte $4f, $c4 // oD
a16c: 46 c3     -         .byte $46, $c3 // fC
a16e: 4f d6     -         .byte $4f, $d6 // oV
a170: 4f cd     -         .byte $4f, $cd // oM
a172: 55 d3     -         .byte $55, $d3 // uS
a174: 42 d3     -         .byte $42, $d3 // bS
a176: 44 c4     -         .byte $44, $c4 // dD
a178: 2f b0     -         .byte $2f, $b0 // /0
a17a: 49 c4     -         .byte $49, $c4 // iD
a17c: 54 cd     -         .byte $54, $cd // tM
a17e: 4c d3     -         .byte $4c, $d3 // lS
a180: 53 d4     -         .byte $53, $d4 // sT
a182: 43 ce     -         .byte $43, $ce // cN
a184: 55 c6     -         .byte $55, $c6 // uF
a186: 20 45 52 52 4f 52                                - QT_ERROR:.text " ERROR"
a18c: 00        -         .byte   0
a18d: 20 49 4e 20                                      - QT_IN:  .text " IN "
a191: 00        -         .byte   $00
a192: 0d 0a 4f 4b 0d 0a                                - QT_OK:  .byte   CR,LF,'O','K',CR,LF
a198: 00        -         .byte	0
a199: 0d 0a 42 52 45 41 4b                             - QT_BREAK:.byte CR,LF,'B','R','E','A','K'
a1a0: 00        -         .byte   0 
a1a1: ba        - GTFORPNT:tsx                                   //  a1a1   ba                                               
a1a2: e8        -         inx                                   //  a1a2   e8                                               
a1a3: e8        -         inx                                   //  a1a3   e8                                               
a1a4: e8        -         inx                                   //  a1a4   e8                                               
a1a5: e8        -         inx                                   //  a1a5   e8                                               
a1a6: bd 01 01  - SearchFORLoop:lda STACK+1,x                         //  a1a6   bd 01 01   LOAD XREG WITH STK PNTR                                              
a1a9: c9 81     -         cmp #$81                              //  a1a9   c9 81      IS IT A "FOR" TOKEN?                                            
a1ab: d0 21     -         bne NoForLoopFound                    //  a1ab   d0 21      NO, NO "FOR" LOOPS WITH THIS PNTR.                                             
a1ad: a5 98     -         lda FORPNT+1                          //  a1ad   a5 98      GET HIGH.                                          
a1af: d0 0a     -         bne !Skip+                            //  a1af   d0 0a                                                  
a1b1: bd 02 01  -         lda STACK+2,x                         //  a1b1   bd 02 01   PNTR IS ZERO, SO ASSUME THIS ONE.                                               
a1b4: 85 97     -         sta FORPNT                            //  a1b4   85 97                                               
a1b6: bd 03 01  -         lda STACK+3,x                         //  a1b6   bd 03 01                                                 
a1b9: 85 98     -         sta FORPNT+1                          //  a1b9   85 98                                                
a1bb: dd 03 01  -         cmp STACK+3,x                         //  a1bb   dd 03 01                                                 
a1be: d0 07     -         bne NotFound                          //  a1be   d0 07      NOT THIS ONE.                                            
a1c0: a5 97     -         lda FORPNT                            //  a1c0   a5 97      GET DOWN.                                          
a1c2: dd 02 01  -         cmp STACK+2,x                         //  a1c2   dd 02 01                                                 
a1c5: f0 07     -         beq FoundIt                           //  a1c5   f0 07      WE GOT IT! WE GOT IT!                                            
a1c7: 8a        - NotFound:txa                                   //  a1c7   8a                                               
a1c8: 18        -         clc                                   //  a1c8   18         ADD 16 TO X.                                      
a1c9: 69 10     -         adc #BYTES_PER_FRAME                  //  a1c9   69 10                                                  
a1cb: aa        -         tax                                   //  a1cb   aa         RESULT BACK INTO X.                                      
a1cc: d0 d8     -         bne SearchFORLoop                     //  a1cc   d0 d8                                                  
a1ce: 60        - FoundIt,NoForLoopFound:rts                                   //  a1ce   60         RETURN TO CALLER.                                      
a1cf: 20 1f a2  - BLTU:   jsr REASON                      //  a1cf   20 1f a2      ASCERTAIN THAT STRING SPACE WON'T BE OVERRUN.                                        
a1d2: 85 7f     -         sta STREND                      //  a1d2   85 7f                                                
a1d4: 84 80     -         sty STREND+1                    //  a1d4   84 80                                                
a1d6: 38        - BLTU2:  sec                             //  a1d6   38            PREPARE TO SUBTRACT.                                   
a1d7: a5 a6     -         lda HIGHTR                      //  a1d7   a5 a6                                                
a1d9: e5 aa     -         sbc LOWTR                       //  a1d9   e5 aa         COMPUTE NUMBER OF THINGS TO MOVE.                                       
a1db: 85 71     -         sta INDEX                       //  a1db   85 71         SAVE FOR LATER.                                       
a1dd: a8        -         tay                             //  a1dd   a8                                               
a1de: a5 a7     -         lda HIGHTR+1                    //  a1de   a5 a7                                                
a1e0: e5 ab     -         sbc LOWTR+1                     //  a1e0   e5 ab                                                
a1e2: aa        -         tax                             //  a1e2   aa            PUT IT IN A COUNTER REGISTER.                                   
a1e3: e8        -         inx                             //  a1e3   e8            SO THAT COUNTER ALGORITHM WORKS.                                   
a1e4: 98        -         tya                             //  a1e4   98            SEE IF LOW PART OF COUNT IS ZERO.                                   
a1e5: f0 23     -         beq DECBLT                      //  a1e5   f0 23         YES, GO START MOVING BLOCKS.                                         
a1e7: a5 a6     -         lda HIGHTR                      //  a1e7   a5 a6         NO, MUST MODIFY BASE ADDR.                                       
a1e9: 38        -         sec                             //  a1e9   38                                               
a1ea: e5 71     -         sbc INDEX                       //  a1ea   e5 71         BORROW IS OFF SINCE [HIGHTR].GT.[LOWTR].                                       
a1ec: 85 a6     -         sta HIGHTR                      //  a1ec   85 a6         SAVE MODIFIED BASE ADDR.                                       
a1ee: b0 03     -         bcs BLT1                        //  a1ee   b0 03         IF NO BORROW, GO SHOVE IT.                                         
a1f0: c6 a7     -         dec HIGHTR+1                    //  a1f0   c6 a7         BORROW IMPLIES SUB 1 FROM HIGH ORDER.                                       
a1f2: 38        -         sec                             //  a1f2   38                                               
a1f3: a5 a4     - BLT1:   lda HIGHDS                      //  a1f3   a5 a4         MOD BASE OF DEST ADDR.                                       
a1f5: e5 71     -         sbc INDEX                       //  a1f5   e5 71                                                
a1f7: 85 a4     -         sta HIGHDS                      //  a1f7   85 a4                                                
a1f9: b0 08     -         bcs MOREN1                      //  a1f9   b0 08         NO BORROW.                                         
a1fb: c6 a5     -         dec HIGHDS+1                    //  a1fb   c6 a5         DECREMENT HIGH ORDER BYTE.                                       
a1fd: 90 04     -         bcc MOREN1                      //  a1fd   90 04         ALWAYS SKIP.                                         
a1ff: b1 a6     - BLTLP:  lda (HIGHTR),y                  //  a1ff   b1 a6         FETCH BYTE TO MOVE                                          
a201: 91 a4     -         sta (HIGHDS),y                  //  a201   91 a4         MOVE IT IN, MOVE IT OUT.                                          
a203: 88        - MOREN1: dey                             //  a203   88                                               
a204: d0 f9     -         bne BLTLP                       //  a204   d0 f9                                                  
a206: b1 a6     -         lda (HIGHTR),y                  //  a206   b1 a6         MOVE LAST OF THE BLOCK.                                          
a208: 91 a4     -         sta (HIGHDS),y                  //  a208   91 a4                                                   
a20a: c6 a7     - DECBLT: dec HIGHTR+1                    //  a20a   c6 a7         START ON NEW BLOCKS.                                       
a20c: c6 a5     -         dec HIGHDS+1                    //  a20c   c6 a5                                                
a20e: ca        -         dex                             //  a20e   ca                                               
a20f: d0 f2     -         bne MOREN1                       //  a20f   d0 f2                                                  
a211: 60        -         rts                             //  a211   60            RETURN TO CALLER.                                   
a212: 0a        - CHKMEM: asl                             //  a212   0a            MULT [A] BY 2. NB, CLEARS C BIT.                                     
a213: 69 33     -         adc #SPACE_FOR_GOSUB            //  a213   69 33         MAKE SURE 2*NUMLEV+13 LOCS (13 BECAUSE OF FBUFFR)                                         
a215: b0 35     -         bcs MEMERR                      //  a215   b0 35         WILL REMAIN IN STACK.                                         
a217: 85 71     -         sta INDEX                       //  a217   85 71                                                
a219: ba        -         tsx                             //  a219   ba            GET STACKED.                                   
a21a: e4 71     -         cpx INDEX                       //  a21a   e4 71         COMPARE.                                       
a21c: 90 2e     -         bcc MEMERR                      //  a21c   90 2e         IF STACK.LE.INDEX1, OM.                                         
a21e: 60        -         rts                             //  a21e   60                                               
a21f: c4 82     - REASON: cpy FRETOP+1                 //  a21f   c4 82                                                
a221: 90 28     -         bcc REARTS                   //  a221   90 28                                                  
a223: d0 04     -         bne TRYMOR                   //  a223   d0 04            GO GARB COLLECT.                                      
a225: c5 81     -         cmp FRETOP                   //  a225   c5 81                                                
a227: 90 22     -         bcc REARTS                   //  a227   90 22                                                  
a229: 48        - TRYMOR: pha                          //  a229   48                                               
a22a: a2 08     -         ldx #$08                     //  a22a   a2 08            //IF TEMPF2 HAS ZERO IN BETWEEN.                                      
a22c: 98        -         tya                          //  a22c   98                                               
a22d: 48        - REASAV: pha                          //  a22d   48                                               
a22e: b5 a3     -         lda $a3,x                    //  a22e   b5 a3                                                  
a230: ca        -         dex                          //  a230   ca                                               
a231: 10 fa     -         bpl $a22d                    //  a231   10 fa                                                  
a233: 20 47 b1  -         jsr $b147                    //  a233   20 47 b1                                               
a236: a2 f8     -         ldx #$f8                     //  a236   a2 f8                                                  
a238: 68        - la238:  pla                          //  a238   68                                               
a239: 95 ac     -         sta $ac,x                    //  a239   95 ac                                                  
a23b: e8        -         inx                          //  a23b   e8                                               
a23c: 30 fa     -         bmi $a238                    //  a23c   30 fa                                                  
a23e: 68        -         pla                          //  a23e   68                                               
a23f: a8        -         tay                          //  a23f   a8                                               
a240: 68        -         pla                          //  a240   68                                               
a241: c4 82     -         cpy $82                      //  a241   c4 82                                                
a243: 90 06     -         bcc REARTS                    //  a243   90 06                                                  
a245: d0 05     -         bne $a24c                    //  a245   d0 05                                                  
a247: c5 81     -         cmp $81                      //  a247   c5 81                                                
a249: b0 01     -         bcs $a24c                    //  a249   b0 01                                                  
a24b: 60        - REARTS: rts                          //  a24b   60                                               
a24c: a2 0c     - MEMERR: ldx #$0c                     //  a24c   a2 0c                                                  
a24e: 46 64     - ERROR:  lsr $64                      //  a24e   46 64                                                
a250: 20 6c a8  -         jsr $a86c                    //  a250   20 6c a8                                               
a253: 20 e3 a8  -         jsr $a8e3                    //  a253   20 e3 a8                                               
a256: bd 64 a1  -         lda $a164,x                   //  a256   bd 64 a1                                                 
a259: 20 e5 a8  -         jsr $a8e5                    //  a259   20 e5 a8                                               
a25c: bd 65 a1  -         lda $a165,x                   //  a25c   bd 65 a1                                                 
a25f: 20 e5 a8  -         jsr $a8e5                    //  a25f   20 e5 a8                                               
a262: 20 91 a4  -         jsr $a491                    //  a262   20 91 a4                                               
a265: a9 86     -         lda #$86                     //  a265   a9 86                                                  
a267: a0 a1     -         ldy #$a1                     //  a267   a0 a1                                                  
a269: 20 c3 a8  - PRINT_ERROR_LINNUM:jsr $a8c3                    //  a269   20 c3 a8                                               
a26c: a4 88     -         ldy $88                      //  a26c   a4 88                                                
a26e: c8        -         iny                          //  a26e   c8                                               
a26f: f0 03     -         beq $a274                    //  a26f   f0 03                                                  
a271: 20 53 b9  -         jsr $b953                    //  a271   20 53 b9                                               
a274: 46 64     - RESTART:lsr $64                      //  a274   46 64                                                
a276: a9 92     -         lda #$92                     //  a276   a9 92                                                  
a278: a0 a1     -         ldy #$a1                     //  a278   a0 a1                                                  
a27a: 20 03 00  -         jsr $0003                    //  a27a   20 03 00                                               
a27d: 20 57 a3  - la27d:  jsr $a357                    //  a27d   20 57 a3                                               
a280: 86 c3     -         stx.zp $c3                      //  a280   86 c3                                                
a282: 84 c4     -         sty.zp $c4                      //  a282   84 c4                                                
a284: 20 bc 00  -         jsr $00bc                    //  a284   20 bc 00                                               
a287: f0 f4     -         beq $a27d                    //  a287   f0 f4                                                  
a289: a2 ff     -         ldx #$ff                     //  a289   a2 ff                                                  
a28b: 86 88     -         stx $88                      //  a28b   86 88                                                
a28d: 90 06     -         bcc $a295                    //  a28d   90 06                                                  
a28f: 20 a6 a3  -         jsr $a3a6                    //  a28f   20 a6 a3                                               
a292: 4c f6 a5  -         jmp $a5f6                    //  a292   4c f6 a5                                               
a295: 20 7f a7  - NUMBERED_LINE:jsr $a77f                    //  a295   20 7f a7                                               
a298: 20 a6 a3  -         jsr $a3a6                    //  a298   20 a6 a3                                               
a29b: 84 5d     -         sty $5d                      //  a29b   84 5d                                                
a29d: 20 32 a4  -         jsr $a432                    //  a29d   20 32 a4                                               
a2a0: 90 44     -         bcc $a2e6                    //  a2a0   90 44                                                  
a2a2: a0 01     -         ldy #$01                     //  a2a2   a0 01                                                  
a2a4: b1 aa     -         lda ($aa),y                   //  a2a4   b1 aa                                                   
a2a6: 85 72     -         sta $72                      //  a2a6   85 72                                                
a2a8: a5 7b     -         lda $7b                      //  a2a8   a5 7b                                                
a2aa: 85 71     -         sta $71                      //  a2aa   85 71                                                
a2ac: a5 ab     -         lda $ab                      //  a2ac   a5 ab                                                
a2ae: 85 74     -         sta $74                      //  a2ae   85 74                                                
a2b0: a5 aa     -         lda $aa                      //  a2b0   a5 aa                                                
a2b2: 88        -         dey                          //  a2b2   88                                               
a2b3: f1 aa     -         sbc ($aa),y                   //  a2b3   f1 aa                                                   
a2b5: 18        -         clc                          //  a2b5   18                                               
a2b6: 65 7b     -         adc $7b                      //  a2b6   65 7b                                                
a2b8: 85 7b     -         sta $7b                      //  a2b8   85 7b                                                
a2ba: 85 73     -         sta $73                      //  a2ba   85 73                                                
a2bc: a5 7c     -         lda $7c                      //  a2bc   a5 7c                                                
a2be: 69 ff     -         adc #$ff                     //  a2be   69 ff                                                  
a2c0: 85 7c     -         sta $7c                      //  a2c0   85 7c                                                
a2c2: e5 ab     -         sbc $ab                      //  a2c2   e5 ab                                                
a2c4: aa        -         tax                          //  a2c4   aa                                               
a2c5: 38        -         sec                          //  a2c5   38                                               
a2c6: a5 aa     -         lda $aa                      //  a2c6   a5 aa                                                
a2c8: e5 7b     -         sbc $7b                      //  a2c8   e5 7b                                                
a2ca: a8        -         tay                          //  a2ca   a8                                               
a2cb: b0 03     -         bcs $a2d0                    //  a2cb   b0 03                                                  
a2cd: e8        -         inx                          //  a2cd   e8                                               
a2ce: c6 74     -         dec $74                      //  a2ce   c6 74                                                
a2d0: 18        - la2d0:  clc                          //  a2d0   18                                               
a2d1: 65 71     -         adc $71                      //  a2d1   65 71                                                
a2d3: 90 03     -         bcc $a2d8                    //  a2d3   90 03                                                  
a2d5: c6 72     -         dec $72                      //  a2d5   c6 72                                                
a2d7: 18        -         clc                          //  a2d7   18                                               
a2d8: b1 71     - la2d8:  lda ($71),y                   //  a2d8   b1 71                                                   
a2da: 91 73     -         sta ($73),y                   //  a2da   91 73                                                   
a2dc: c8        -         iny                          //  a2dc   c8                                               
a2dd: d0 f9     -         bne $a2d8                    //  a2dd   d0 f9                                                  
a2df: e6 72     -         inc $72                      //  a2df   e6 72                                                
a2e1: e6 74     -         inc $74                      //  a2e1   e6 74                                                
a2e3: ca        -         dex                          //  a2e3   ca                                               
a2e4: d0 f2     -         bne $a2d8                    //  a2e4   d0 f2                                                  
a2e6: a5 13     - PUT_NEW_LINE:lda $13                      //  a2e6   a5 13                                                
a2e8: f0 2f     -         beq $a319                    //  a2e8   f0 2f                                                  
a2ea: a5 85     -         lda $85                      //  a2ea   a5 85                                                
a2ec: a4 86     -         ldy $86                      //  a2ec   a4 86                                                
a2ee: 85 81     -         sta $81                      //  a2ee   85 81                                                
a2f0: 84 82     -         sty $82                      //  a2f0   84 82                                                
a2f2: a5 7b     -         lda $7b                      //  a2f2   a5 7b                                                
a2f4: 85 a6     -         sta $a6                      //  a2f4   85 a6                                                
a2f6: 65 5d     -         adc $5d                      //  a2f6   65 5d                                                
a2f8: 85 a4     -         sta $a4                      //  a2f8   85 a4                                                
a2fa: a4 7c     -         ldy $7c                      //  a2fa   a4 7c                                                
a2fc: 84 a7     -         sty $a7                      //  a2fc   84 a7                                                
a2fe: 90 01     -         bcc $a301                    //  a2fe   90 01                                                  
a300: c8        -         iny                          //  a300   c8                                               
a301: 84 a5     - la301:  sty $a5                      //  a301   84 a5                                                
a303: 20 cf a1  -         jsr $a1cf                    //  a303   20 cf a1                                               
a306: a5 7f     -         lda $7f                      //  a306   a5 7f                                                
a308: a4 80     -         ldy $80                      //  a308   a4 80                                                
a30a: 85 7b     -         sta $7b                      //  a30a   85 7b                                                
a30c: 84 7c     -         sty $7c                      //  a30c   84 7c                                                
a30e: a4 5d     -         ldy $5d                      //  a30e   a4 5d                                                
a310: 88        -         dey                          //  a310   88                                               
a311: b9 0f 00  - la311:  lda $000f,y                   //  a311   b9 0f 00                                                 
a314: 91 aa     -         sta ($aa),y                   //  a314   91 aa                                                   
a316: 88        -         dey                          //  a316   88                                               
a317: 10 f8     -         bpl $a311                    //  a317   10 f8                                                  
a319: 20 77 a4  - FIX_LINKS:jsr $a477                    //  a319   20 77 a4                                               
a31c: a5 79     -         lda $79                      //  a31c   a5 79                                                
a31e: a4 7a     -         ldy $7a                      //  a31e   a4 7a                                                
a320: 85 71     -         sta $71                      //  a320   85 71                                                
a322: 84 72     -         sty $72                      //  a322   84 72                                                
a324: 18        -         clc                          //  a324   18                                               
a325: a0 01     - la325:  ldy #$01                     //  a325   a0 01                                                  
a327: b1 71     -         lda ($71),y                   //  a327   b1 71                                                   
a329: d0 03     -         bne $a32e                    //  a329   d0 03                                                  
a32b: 4c 7d a2  -         jmp $a27d                    //  a32b   4c 7d a2                                               
a32e: a0 04     - la32e:  ldy #$04                     //  a32e   a0 04                                                  
a330: c8        - la330:  iny                          //  a330   c8                                               
a331: b1 71     -         lda ($71),y                   //  a331   b1 71                                                   
a333: d0 fb     -         bne $a330                    //  a333   d0 fb                                                  
a335: c8        -         iny                          //  a335   c8                                               
a336: 98        -         tya                          //  a336   98                                               
a337: 65 71     -         adc $71                      //  a337   65 71                                                
a339: aa        -         tax                          //  a339   aa                                               
a33a: a0 00     -         ldy #$00                     //  a33a   a0 00                                                  
a33c: 91 71     -         sta ($71),y                   //  a33c   91 71                                                   
a33e: a5 72     -         lda $72                      //  a33e   a5 72                                                
a340: 69 00     -         adc #$00                     //  a340   69 00                                                  
a342: c8        -         iny                          //  a342   c8                                               
a343: 91 71     -         sta ($71),y                   //  a343   91 71                                                   
a345: 86 71     -         stx $71                      //  a345   86 71                                                
a347: 85 72     -         sta $72                      //  a347   85 72                                                
a349: 90 da     -         bcc $a325                    //  a349   90 da                                                  
a34b: 20 e5 a8  -         jsr $a8e5                    //  a34b   20 e5 a8                                               
a34e: ca        -         dex                          //  a34e   ca                                               
a34f: 10 08     -         bpl $a359                    //  a34f   10 08                                                  
a351: 20 e5 a8  - la351:  jsr $a8e5                    //  a351   20 e5 a8                                               
a354: 20 6c a8  -         jsr $a86c                    //  a354   20 6c a8                                               
a357: a2 00     - INLIN:  ldx #$00                     //  a357   a2 00                                                  
a359: 20 86 a3  - INLIN2: jsr $a386                    //  a359   20 86 a3                                               
a35c: c9 07     -         cmp #$07                     //  a35c   c9 07                                                  
a35e: f0 14     -         beq $a374                    //  a35e   f0 14                                                  
a360: c9 0d     -         cmp #$0d                     //  a360   c9 0d                                                  
a362: f0 1f     -         beq $a383                    //  a362   f0 1f                                                  
a364: c9 0b     -         cmp #$0b                     //  a364   c9 0b                                                  
a366: 90 f1     -         bcc $a359                    //  a366   90 f1                                                  
a368: c9 7f     -         cmp #$7f                     //  a368   c9 7f                                                  
a36a: b0 ed     -         bcs $a359                    //  a36a   b0 ed                                                  
a36c: c9 40     -         cmp #$40                     //  a36c   c9 40                                                  
a36e: f0 e1     -         beq $a351                    //  a36e   f0 e1                                                  
a370: 4c d5 fc  -         jmp $fcd5                    //  a370   4c d5 fc                                               
a373: d7        -         .byte $d7                    //  a373   d7         %11010111                                                     
a374: e0 47     - la374:  cpx #$47                     //  a374   e0 47                                                  
a376: b0 04     -         bcs $a37c                    //  a376   b0 04                                                  
a378: 95 13     -         sta $13,x                    //  a378   95 13                                                  
a37a: e8        -         inx                          //  a37a   e8                                               
a37b: 2c a9 07  -         bit $07a9                    //  a37b   2c a9 07                                               
a37e: 20 e5 a8  -         jsr $a8e5                    //  a37e   20 e5 a8                                               
a381: d0 d6     -         bne $a359                    //  a381   d0 d6                                                  
a383: 4c 66 a8  - la383:  jmp $a866                    //  a383   4c 66 a8                                               
a386: 20 eb ff  - GETLN:  jsr $ffeb                    //  a386   20 eb ff                                               
a389: ea        -         nop                          //  a389   ea                                               
a38a: ea        -         nop                          //  a38a   ea                                               
a38b: ea        -         nop                          //  a38b   ea                                               
a38c: ea        -         nop                          //  a38c   ea                                               
a38d: ea        -         nop                          //  a38d   ea                                               
a38e: ea        -         nop                          //  a38e   ea                                               
a38f: ea        -         nop                          //  a38f   ea                                               
a390: ea        -         nop                          //  a390   ea                                               
a391: ea        -         nop                          //  a391   ea                                               
a392: ea        -         nop                          //  a392   ea                                               
a393: ea        -         nop                          //  a393   ea                                               
a394: ea        -         nop                          //  a394   ea                                               
a395: ea        -         nop                          //  a395   ea                                               
a396: ea        -         nop                          //  a396   ea                                               
a397: 29 7f     -         and #$7f                     //  a397   29 7f                                                  
a399: c9 0f     - RDKEY:  cmp #$0f                     //  a399   c9 0f                                                  
a39b: d0 08     -         bne $a3a5                    //  a39b   d0 08                                                  
a39d: 48        -         pha                          //  a39d   48                                               
a39e: a5 64     -         lda $64                      //  a39e   a5 64                                                
a3a0: 49 ff     -         eor #$ff                     //  a3a0   49 ff                                                  
a3a2: 85 64     -         sta $64                      //  a3a2   85 64 
a3a4: 68        -         pla                          //  a3a4   68                                               
a3a5: 60        - la3a5:  rts                          //  a3a5   60                                               
a3a6: a6 c3     - PARSE_INPUT_LINE:ldx.zp $c3                      //  a3a6   a6 c3                                                
a3a8: a0 04     -         ldy #$04                     //  a3a8   a0 04                                                  
a3aa: 84 60     -         sty $60                      //  a3aa   84 60                                                
a3ac: b5 00     - la3ac:  lda.zp $00,x                    //  a3ac   b5 00                                                  
a3ae: c9 20     -         cmp #$20                     //  a3ae   c9 20                                                  
a3b0: f0 3a     -         beq $a3ec                    //  a3b0   f0 3a                                                  
a3b2: 85 5c     -         sta $5c                      //  a3b2   85 5c                                                
a3b4: c9 22     -         cmp #$22                     //  a3b4   c9 22                                                  
a3b6: f0 58     -         beq $a410                    //  a3b6   f0 58                                                  
a3b8: 24 60     -         bit $60                      //  a3b8   24 60                                                
a3ba: 70 30     -         bvs $a3ec                    //  a3ba   70 30                                                  
a3bc: c9 3f     -         cmp #$3f                     //  a3bc   c9 3f                                                  
a3be: d0 04     -         bne $a3c4                    //  a3be   d0 04                                                  
a3c0: a9 97     -         lda #$97                     //  a3c0   a9 97                                                  
a3c2: d0 28     -         bne $a3ec                    //  a3c2   d0 28                                                  
a3c4: c9 30     - la3c4:  cmp #$30                     //  a3c4   c9 30                                                  
a3c6: 90 04     -         bcc $a3cc                    //  a3c6   90 04                                                  
a3c8: c9 3c     -         cmp #$3c                     //  a3c8   c9 3c                                                  
a3ca: 90 20     -         bcc $a3ec                    //  a3ca   90 20                                                  
a3cc: 84 ba     - la3cc:  sty $ba                      //  a3cc   84 ba                                                
a3ce: a0 00     -         ldy #$00                     //  a3ce   a0 00                                                  
a3d0: 84 5d     -         sty $5d                      //  a3d0   84 5d                                                
a3d2: 88        -         dey                          //  a3d2   88                                               
a3d3: 86 c3     -         stx.zp $c3                      //  a3d3   86 c3                                                
a3d5: ca        -         dex                          //  a3d5   ca                                               
a3d6: c8        - la3d6:  iny                          //  a3d6   c8                                               
a3d7: e8        - la3d7:  inx                          //  a3d7   e8                                               
a3d8: b5 00     - la3d8:  lda.zp $00,x                    //  a3d8   b5 00                                                  
a3da: c9 20     -         cmp #$20                     //  a3da   c9 20                                                  
a3dc: f0 f9     -         beq $a3d7                    //  a3dc   f0 f9                                                  
a3de: 38        -         sec                          //  a3de   38                                               
a3df: f9 84 a0  -         sbc $a084,y                   //  a3df   f9 84 a0                                                 
a3e2: f0 f2     -         beq $a3d6                    //  a3e2   f0 f2                                                  
a3e4: c9 80     -         cmp #$80                     //  a3e4   c9 80                                                  
a3e6: d0 2f     -         bne $a417                    //  a3e6   d0 2f                                                  
a3e8: 05 5d     -         ora $5d                      //  a3e8   05 5d                                                
a3ea: a4 ba     - la3ea:  ldy $ba                      //  a3ea   a4 ba                                                
a3ec: e8        - la3ec:  inx                          //  a3ec   e8                                               
a3ed: c8        -         iny                          //  a3ed   c8                                               
a3ee: 99 0e 00  -         sta $000e,y                   //  a3ee   99 0e 00                                                 
a3f1: b9 0e 00  -         lda $000e,y                   //  a3f1   b9 0e 00                                                 
a3f4: f0 34     -         beq $a42a                    //  a3f4   f0 34                                                  
a3f6: 38        -         sec                          //  a3f6   38                                               
a3f7: e9 3a     -         sbc #$3a                     //  a3f7   e9 3a                                                  
a3f9: f0 04     -         beq $a3ff                    //  a3f9   f0 04                                                  
a3fb: c9 49     -         cmp #$49                     //  a3fb   c9 49                                                  
a3fd: d0 02     -         bne $a401                    //  a3fd   d0 02                                                  
a3ff: 85 60     - la3ff:  sta $60                      //  a3ff   85 60                                                
a401: 38        - la401:  sec                          //  a401   38                                               
a402: e9 54     -         sbc #$54                     //  a402   e9 54                                                  
a404: d0 a6     -         bne $a3ac                    //  a404   d0 a6                                                  
a406: 85 5c     -         sta $5c                      //  a406   85 5c                                                
a408: b5 00     - la408:  lda GORESTART,x                    //  a408   b5 00                                                  
a40a: f0 e0     -         beq $a3ec                    //  a40a   f0 e0                                                  
a40c: c5 5c     -         cmp $5c                      //  a40c   c5 5c                                                
a40e: f0 dc     -         beq $a3ec                    //  a40e   f0 dc                                                  
a410: c8        - la410:  iny                          //  a410   c8                                               
a411: 99 0e 00  -         sta $000e,y                   //  a411   99 0e 00                                                 
a414: e8        -         inx                          //  a414   e8                                               
a415: d0 f1     -         bne $a408                    //  a415   d0 f1                                                  
a417: a6 c3     - la417:  ldx.zp $c3                      //  a417   a6 c3                                                
a419: e6 5d     -         inc $5d                      //  a419   e6 5d                                                
a41b: c8        - la41b:  iny                          //  a41b   c8                                               
a41c: b9 83 a0  -         lda $a083,y                   //  a41c   b9 83 a0                                                 
a41f: 10 fa     -         bpl $a41b                    //  a41f   10 fa                                                  
a421: b9 84 a0  -         lda $a084,y                   //  a421   b9 84 a0                                                 
a424: d0 b2     -         bne $a3d8                    //  a424   d0 b2                                                  
a426: b5 00     -         lda GORESTART,x                    //  a426   b5 00                                                  
a428: 10 c0     -         bpl $a3ea                    //  a428   10 c0                                                  
a42a: 99 10 00  - la42a:  sta $0010,y                   //  a42a   99 10 00                                                 
a42d: a9 12     -         lda #$12                     //  a42d   a9 12                                                  
a42f: 85 c3     -         sta.zp $c3                      //  a42f   85 c3                                                
a431: 60        -         rts                          //  a431   60                                               
a432: a5 79     - FNDLIN: lda $79                      //  a432   a5 79                                                
a434: a6 7a     -         ldx $7a                      //  a434   a6 7a                                                
a436: a0 01     - FL1:    ldy #$01                     //  a436   a0 01                                                  
a438: 85 aa     -         sta $aa                      //  a438   85 aa                                                
a43a: 86 ab     -         stx $ab                      //  a43a   86 ab                                                
a43c: b1 aa     -         lda ($aa),y                   //  a43c   b1 aa                                                   
a43e: f0 1f     -         beq $a45f                    //  a43e   f0 1f                                                  
a440: c8        -         iny                          //  a440   c8                                               
a441: c8        -         iny                          //  a441   c8                                               
a442: a5 12     -         lda $12                      //  a442   a5 12                                                
a444: d1 aa     -         cmp ($aa),y                   //  a444   d1 aa                                                   
a446: 90 18     -         bcc $a460                    //  a446   90 18                                                  
a448: f0 03     -         beq $a44d                    //  a448   f0 03                                                  
a44a: 88        -         dey                          //  a44a   88                                               
a44b: d0 09     -         bne $a456                    //  a44b   d0 09                                                  
a44d: a5 11     - la44d:  lda $11                      //  a44d   a5 11                                                
a44f: 88        -         dey                          //  a44f   88                                               
a450: d1 aa     -         cmp ($aa),y                   //  a450   d1 aa                                                   
a452: 90 0c     -         bcc $a460                    //  a452   90 0c                                                  
a454: f0 0a     -         beq $a460                    //  a454   f0 0a                                                  
a456: 88        - la456:  dey                          //  a456   88                                               
a457: b1 aa     -         lda ($aa),y                   //  a457   b1 aa                                                   
a459: aa        -         tax                          //  a459   aa                                               
a45a: 88        -         dey                          //  a45a   88                                               
a45b: b1 aa     -         lda ($aa),y                   //  a45b   b1 aa                                                   
a45d: b0 d7     -         bcs $a436                    //  a45d   b0 d7                                                  
a45f: 18        - la45f:  clc                          //  a45f   18                                               
a460: 60        - la460:  rts                          //  a460   60                                               
a461: d0 fd     - NEW:    bne $a460                    //  a461   d0 fd                                                  
a463: a9 00     - SCRTCH: lda #$00                     //  a463   a9 00                                                  
a465: a8        -         tay                          //  a465   a8                                               
a466: 91 79     -         sta ($79),y                   //  a466   91 79                                                   
a468: c8        -         iny                          //  a468   c8                                               
a469: 91 79     -         sta ($79),y                   //  a469   91 79                                                   
a46b: a5 79     -         lda $79                      //  a46b   a5 79                                                
a46d: 69 02     -         adc #$02                     //  a46d   69 02                                                  
a46f: 85 7b     -         sta $7b                      //  a46f   85 7b                                                
a471: a5 7a     -         lda $7a                      //  a471   a5 7a                                                
a473: 69 00     -         adc #$00                     //  a473   69 00                                                  
a475: 85 7c     -         sta $7c                      //  a475   85 7c                                                
a477: 20 a7 a4  - SETPTRS:jsr $a4a7                    //  a477   20 a7 a4                                               
a47a: a5 85     - CLEARC: lda $85                      //  a47a   a5 85                                                
a47c: a4 86     -         ldy $86                      //  a47c   a4 86                                                
a47e: 85 81     -         sta $81                      //  a47e   85 81                                                
a480: 84 82     -         sty $82                      //  a480   84 82                                                
a482: a5 7b     -         lda $7b                      //  a482   a5 7b                                                
a484: a4 7c     -         ldy $7c                      //  a484   a4 7c                                                
a486: 85 7d     -         sta $7d                      //  a486   85 7d                                                
a488: 84 7e     -         sty $7e                      //  a488   84 7e                                                
a48a: 85 7f     -         sta $7f                      //  a48a   85 7f                                                
a48c: 84 80     -         sty $80                      //  a48c   84 80                                                
a48e: 20 1a a6  -         jsr $a61a                    //  a48e   20 1a a6                                               
a491: a2 68     - STKINI: ldx #$68                     //  a491   a2 68                                                  
a493: 86 65     -         stx $65                      //  a493   86 65                                                
a495: 68        -         pla                          //  a495   68                                               
a496: 8d fd 01  -         sta $01fd                    //  a496   8d fd 01                                               
a499: 68        -         pla                          //  a499   68                                               
a49a: 8d fe 01  -         sta $01fe                    //  a49a   8d fe 01                                               
a49d: a2 fc     -         ldx #$fc                     //  a49d   a2 fc                                                  
a49f: 9a        -         txs                          //  a49f   9a                                               
a4a0: a9 00     -         lda #$00                     //  a4a0   a9 00                                                  
a4a2: 85 8c     -         sta $8c                      //  a4a2   85 8c                                                
a4a4: 85 61     -         sta $61                      //  a4a4   85 61                                                
a4a6: 60        - la4a6:  rts                          //  a4a6   60                                               
a4a7: 18        - STXTPT: clc                          //  a4a7   18                                               
a4a8: a5 79     -         lda $79                      //  a4a8   a5 79                                                
a4aa: 69 ff     -         adc #$ff                     //  a4aa   69 ff                                                  
a4ac: 85 c3     -         sta.zp $c3                      //  a4ac   85 c3                                                
a4ae: a5 7a     -         lda $7a                      //  a4ae   a5 7a                                                
a4b0: 69 ff     -         adc #$ff                     //  a4b0   69 ff                                                  
a4b2: 85 c4     -         sta.zp $c4                      //  a4b2   85 c4                                                
a4b4: 60        -         rts                          //  a4b4   60                                               
a4b5: 90 06     - LIST:   bcc $a4bd                    //  a4b5   90 06                                                  
a4b7: f0 04     -         beq $a4bd                    //  a4b7   f0 04                                                  
a4b9: c9 a4     -         cmp #$a4                     //  a4b9   c9 a4                                                  
a4bb: d0 e9     -         bne $a4a6                    //  a4bb   d0 e9                                                  
a4bd: 20 7f a7  -         jsr $a77f                    //  a4bd   20 7f a7                                               
a4c0: 20 32 a4  -         jsr $a432                    //  a4c0   20 32 a4                                               
a4c3: 20 c2 00  -         jsr $00c2                    //  a4c3   20 c2 00                                               
a4c6: f0 0c     -         beq $a4d4                    //  a4c6   f0 0c                                                  
a4c8: c9 a4     -         cmp #$a4                     //  a4c8   c9 a4                                                  
a4ca: d0 94     -         bne $a460                    //  a4ca   d0 94                                                  
a4cc: 20 bc 00  -         jsr $00bc                    //  a4cc   20 bc 00                                               
a4cf: 20 7f a7  -         jsr $a77f                    //  a4cf   20 7f a7                                               
a4d2: d0 8c     -         bne $a460                    //  a4d2   d0 8c                                                  
a4d4: 68        - la4d4:  pla                          //  a4d4   68                                               
a4d5: 68        -         pla                          //  a4d5   68                                               
a4d6: a5 11     -         lda $11                      //  a4d6   a5 11                                                
a4d8: 05 12     -         ora $12                      //  a4d8   05 12                                                
a4da: d0 06     -         bne $a4e2                    //  a4da   d0 06                                                  
a4dc: a9 ff     -         lda #$ff                     //  a4dc   a9 ff                                                  
a4de: 85 11     -         sta $11                      //  a4de   85 11                                                
a4e0: 85 12     -         sta $12                      //  a4e0   85 12                                                
a4e2: a0 01     - la4e2:  ldy #$01                     //  a4e2   a0 01                                                  
a4e4: 84 60     -         sty $60                      //  a4e4   84 60                                                
a4e6: b1 aa     -         lda ($aa),y                   //  a4e6   b1 aa                                                   
a4e8: f0 41     -         beq $a52b                    //  a4e8   f0 41                                                  
a4ea: 20 29 a6  -         jsr $a629                    //  a4ea   20 29 a6                                               
a4ed: 20 6c a8  -         jsr $a86c                    //  a4ed   20 6c a8                                               
a4f0: c8        -         iny                          //  a4f0   c8                                               
a4f1: b1 aa     -         lda ($aa),y                   //  a4f1   b1 aa                                                   
a4f3: aa        -         tax                          //  a4f3   aa                                               
a4f4: c8        -         iny                          //  a4f4   c8                                               
a4f5: b1 aa     -         lda ($aa),y                   //  a4f5   b1 aa                                                   
a4f7: c5 12     -         cmp $12                      //  a4f7   c5 12                                                
a4f9: d0 04     -         bne $a4ff                    //  a4f9   d0 04                                                  
a4fb: e4 11     -         cpx $11                      //  a4fb   e4 11                                                
a4fd: f0 02     -         beq $a501                    //  a4fd   f0 02                                                  
a4ff: b0 2a     - la4ff:  bcs $a52b                    //  a4ff   b0 2a                                                  
a501: 84 97     - la501:  sty $97                      //  a501   84 97                                                
a503: 20 5e b9  -         jsr $b95e                    //  a503   20 5e b9                                               
a506: a9 20     -         lda #$20                     //  a506   a9 20                                                  
a508: a4 97     - la508:  ldy $97                      //  a508   a4 97                                                
a50a: 29 7f     -         and #$7f                     //  a50a   29 7f                                                  
a50c: 20 e5 a8  - la50c:  jsr $a8e5                    //  a50c   20 e5 a8                                               
a50f: c9 22     -         cmp #$22                     //  a50f   c9 22                                                  
a511: d0 06     -         bne $a519                    //  a511   d0 06                                                  
a513: a5 60     -         lda $60                      //  a513   a5 60                                                
a515: 49 ff     -         eor #$ff                     //  a515   49 ff                                                  
a517: 85 60     -         sta $60                      //  a517   85 60                                                
a519: c8        - la519:  iny                          //  a519   c8                                               
a51a: b1 aa     -         lda ($aa),y                   //  a51a   b1 aa                                                   
a51c: d0 10     -         bne $a52e                    //  a51c   d0 10                                                  
a51e: a8        -         tay                          //  a51e   a8                                               
a51f: b1 aa     -         lda ($aa),y                   //  a51f   b1 aa                                                   
a521: aa        -         tax                          //  a521   aa                                               
a522: c8        -         iny                          //  a522   c8                                               
a523: b1 aa     -         lda ($aa),y                   //  a523   b1 aa                                                   
a525: 86 aa     -         stx $aa                      //  a525   86 aa                                                
a527: 85 ab     -         sta $ab                      //  a527   85 ab                                                
a529: d0 b7     -         bne $a4e2                    //  a529   d0 b7                                                  
a52b: 4c 74 a2  - la52b:  jmp $a274                    //  a52b   4c 74 a2                                               
a52e: 10 dc     - la52e:  bpl $a50c                    //  a52e   10 dc                                                  
a530: c9 ff     -         cmp #$ff                     //  a530   c9 ff                                                  
a532: f0 d8     -         beq $a50c                    //  a532   f0 d8                                                  
a534: 24 60     -         bit $60                      //  a534   24 60                                                
a536: 30 d4     -         bmi $a50c                    //  a536   30 d4                                                  
a538: 38        -         sec                          //  a538   38                                               
a539: e9 7f     -         sbc #$7f                     //  a539   e9 7f                                                  
a53b: aa        -         tax                          //  a53b   aa                                               
a53c: 84 97     -         sty $97                      //  a53c   84 97                                                
a53e: a0 ff     -         ldy #$ff                     //  a53e   a0 ff                                                  
a540: ca        - la540:  dex                          //  a540   ca                                               
a541: f0 08     -         beq $a54b                    //  a541   f0 08                                                  
a543: c8        - la543:  iny                          //  a543   c8                                               
a544: b9 84 a0  -         lda $a084,y                   //  a544   b9 84 a0                                                 
a547: 10 fa     -         bpl $a543                    //  a547   10 fa                                                  
a549: 30 f5     -         bmi $a540                    //  a549   30 f5                                                  
a54b: c8        - la54b:  iny                          //  a54b   c8                                               
a54c: b9 84 a0  -         lda $a084,y                   //  a54c   b9 84 a0                                                 
a54f: 30 b7     -         bmi $a508                    //  a54f   30 b7                                                  
a551: 20 e5 a8  -         jsr $a8e5                    //  a551   20 e5 a8                                               
a554: d0 f5     -         bne $a54b                    //  a554   d0 f5                                                  
a556: a9 80     - FOR:    lda #$80                     //  a556   a9 80                                                  
a558: 85 61     -         sta $61                      //  a558   85 61                                                
a55a: 20 b9 a7  -         jsr $a7b9                    //  a55a   20 b9 a7                                               
a55d: 20 a1 a1  -         jsr $a1a1                    //  a55d   20 a1 a1                                               
a560: d0 05     -         bne $a567                    //  a560   d0 05                                                  
a562: 8a        -         txa                          //  a562   8a                                               
a563: 69 0d     -         adc #$0d                     //  a563   69 0d                                                  
a565: aa        -         tax                          //  a565   aa                                               
a566: 9a        -         txs                          //  a566   9a                                               
a567: 68        - la567:  pla                          //  a567   68                                               
a568: 68        -         pla                          //  a568   68                                               
a569: a9 08     -         lda #$08                     //  a569   a9 08                                                  
a56b: 20 12 a2  -         jsr $a212                    //  a56b   20 12 a2                                               
a56e: 20 1a a7  -         jsr $a71a                    //  a56e   20 1a a7                                               
a571: 18        -         clc                          //  a571   18                                               
a572: 98        -         tya                          //  a572   98                                               
a573: 65 c3     -         adc.zp $c3                      //  a573   65 c3                                                
a575: 48        -         pha                          //  a575   48                                               
a576: a5 c4     -         lda.zp $c4                      //  a576   a5 c4                                                
a578: 69 00     -         adc #$00                     //  a578   69 00                                                  
a57a: 48        -         pha                          //  a57a   48                                               
a57b: a5 88     -         lda $88                      //  a57b   a5 88                                                
a57d: 48        -         pha                          //  a57d   48                                               
a57e: a5 87     -         lda $87                      //  a57e   a5 87                                                
a580: 48        -         pha                          //  a580   48                                               
a581: a9 9d     -         lda #$9d                     //  a581   a9 9d                                                  
a583: 20 03 ac  -         jsr $ac03                    //  a583   20 03 ac                                               
a586: 20 b0 aa  -         jsr $aab0                    //  a586   20 b0 aa                                               
a589: 20 ad aa  -         jsr $aaad                    //  a589   20 ad aa                                               
a58c: a5 b0     -         lda $b0                      //  a58c   a5 b0                                                
a58e: 09 7f     -         ora #$7f                     //  a58e   09 7f                                                  
a590: 25 ad     -         and $ad                      //  a590   25 ad                                                
a592: 85 ad     -         sta $ad                      //  a592   85 ad                                                
a594: a9 9f     -         lda #$9f                     //  a594   a9 9f                                                  
a596: a0 a5     -         ldy #$a5                     //  a596   a0 a5                                                  
a598: 85 71     -         sta $71                      //  a598   85 71                                                
a59a: 84 72     -         sty $72                      //  a59a   84 72                                                
a59c: 4c 66 ab  -         jmp $ab66                    //  a59c   4c 66 ab                                               
a59f: a9 9c     - STEP:   lda #$9c                     //  a59f   a9 9c                                                  
a5a1: a0 b5     -         ldy #$b5                     //  a5a1   a0 b5                                                  
a5a3: 20 4b b7  -         jsr $b74b                    //  a5a3   20 4b b7                                               
a5a6: 20 c2 00  -         jsr $00c2                    //  a5a6   20 c2 00                                               
a5a9: c9 a2     -         cmp #$a2                     //  a5a9   c9 a2                                                  
a5ab: d0 06     -         bne $a5b3                    //  a5ab   d0 06                                                  
a5ad: 20 bc 00  -         jsr $00bc                    //  a5ad   20 bc 00                                               
a5b0: 20 ad aa  -         jsr $aaad                    //  a5b0   20 ad aa                                               
a5b3: 20 ca b7  - la5b3:  jsr $b7ca                    //  a5b3   20 ca b7                                               
a5b6: 20 5b ab  -         jsr $ab5b                    //  a5b6   20 5b ab                                               
a5b9: a5 98     -         lda $98                      //  a5b9   a5 98                                                
a5bb: 48        -         pha                          //  a5bb   48                                               
a5bc: a5 97     -         lda $97                      //  a5bc   a5 97                                                
a5be: 48        -         pha                          //  a5be   48                                               
a5bf: a9 81     -         lda #$81                     //  a5bf   a9 81                                                  
a5c1: 48        -         pha                          //  a5c1   48                                               
a5c2: 20 29 a6  - NEWSTT: jsr $a629                    //  a5c2   20 29 a6                                               
a5c5: a5 c3     -         lda.zp $c3                      //  a5c5   a5 c3                                                
a5c7: a4 c4     -         ldy.zp $c4                      //  a5c7   a4 c4                                                
a5c9: f0 06     -         beq $a5d1                    //  a5c9   f0 06                                                  
a5cb: 85 8b     -         sta $8b                      //  a5cb   85 8b                                                
a5cd: 84 8c     -         sty $8c                      //  a5cd   84 8c                                                
a5cf: a0 00     -         ldy #$00                     //  a5cf   a0 00                                                  
a5d1: b1 c3     - la5d1:  lda ($c3),y                   //  a5d1   b1 c3                                                   
a5d3: f0 07     -         beq $a5dc                    //  a5d3   f0 07                                                  
a5d5: c9 3a     -         cmp #$3a                     //  a5d5   c9 3a                                                  
a5d7: f0 1d     -         beq $a5f6                    //  a5d7   f0 1d                                                  
a5d9: 4c 0c ac  - SYNERR1:jmp $ac0c                    //  a5d9   4c 0c ac                                               
a5dc: a0 02     - la5dc:  ldy #$02                     //  a5dc   a0 02                                                  
a5de: b1 c3     -         lda ($c3),y                   //  a5de   b1 c3                                                   
a5e0: 18        -         clc                          //  a5e0   18                                               
a5e1: f0 6e     -         beq $a651                    //  a5e1   f0 6e                                                  
a5e3: c8        -         iny                          //  a5e3   c8                                               
a5e4: b1 c3     -         lda ($c3),y                   //  a5e4   b1 c3                                                   
a5e6: 85 87     -         sta $87                      //  a5e6   85 87                                                
a5e8: c8        -         iny                          //  a5e8   c8                                               
a5e9: b1 c3     -         lda ($c3),y                   //  a5e9   b1 c3                                                   
a5eb: 85 88     -         sta $88                      //  a5eb   85 88                                                
a5ed: 98        -         tya                          //  a5ed   98                                               
a5ee: 65 c3     -         adc.zp $c3                      //  a5ee   65 c3                                                
a5f0: 85 c3     -         sta.zp $c3                      //  a5f0   85 c3                                                
a5f2: 90 02     -         bcc $a5f6                    //  a5f2   90 02                                                  
a5f4: e6 c4     -         inc.zp $c4                      //  a5f4   e6 c4                                                
a5f6: 20 bc 00  - NEWSTT2:jsr $00bc                    //  a5f6   20 bc 00                                               
a5f9: 20 ff a5  -         jsr $a5ff                    //  a5f9   20 ff a5                                               
a5fc: 4c c2 a5  -         jmp $a5c2                    //  a5fc   4c c2 a5                                               
a5ff: f0 79     - EXECUTE_STATEMENT:beq !RTS++                    //  a5ff   f0 79                                                  
a601: 38        -         sec                           //  a601   38                                               
a602: e9 80     - EXECUTE_STATEMENT1:sbc #$80                      //  a602   e9 80                                                  
a604: b0 03     -         bcs !Skip+                    //  a604   b0 03                                                  
a606: 4c b9 a7  -         jmp $a7b9                    //  a606   4c b9 a7                                               
a609: c9 1c     -         cmp #$1c                     //  a609   c9 1c                                                  
a60b: b0 cc     -         bcs $a5d9                    //  a60b   b0 cc                                                  
a60d: 0a        -         asl                          //  a60d   0a                                                 
a60e: a8        -         tay                          //  a60e   a8                                               
a60f: b9 01 a0  -         lda $a001,y                   //  a60f   b9 01 a0                                                 
a612: 48        -         pha                          //  a612   48                                               
a613: b9 00 a0  -         lda $a000,y                   //  a613   b9 00 a0                                                 
a616: 48        -         pha                          //  a616   48                                               
a617: 4c bc 00  -         jmp $00bc                    //  a617   4c bc 00                                               
a61a: 38        - RESTORE:sec                          //  a61a   38                                               
a61b: a5 79     -         lda $79                      //  a61b   a5 79                                                
a61d: e9 01     -         sbc #$01                     //  a61d   e9 01                                                  
a61f: a4 7a     -         ldy $7a                      //  a61f   a4 7a                                                
a621: b0 01     -         bcs !Skip+                    //  a621   b0 01                                                  
a623: 88        -         dey                          //  a623   88                                               
a624: 85 8f     -         sta $8f                      //  a624   85 8f                                                
a626: 84 90     -         sty $90                      //  a626   84 90                                                
a628: 60        -         rts                          //  a628   60                                               
a629: 4c f1 ff  - la629:  jmp $fff1                    //  a629   4c f1 ff                                               
a62c: ea        -         nop                          //  a62c   ea                                               
a62d: ea        -         nop                          //  a62d   ea                                               
a62e: ea        -         nop                          //  a62e   ea                                               
a62f: ea        -         nop                          //  a62f   ea                                               
a630: 4a        -         lsr                          //  a630   4a                                                 
a631: 90 f5     -         bcc $a628                    //  a631   90 f5                                                  
a633: 20 86 a3  -         jsr $a386                    //  a633   20 86 a3                                               
a636: c9 03     -         cmp #$03                     //  a636   c9 03                                                  
a638: b0 01     - STOP:   bcs END2                     //  a638   b0 01                                                  
a63a: 18        - END:    clc                          //  a63a   18                                               
a63b: d0 3d     - END2:   bne !RTS+                     //  a63b   d0 3d                                                  
a63d: a5 c3     -         lda.zp $c3                      //  a63d   a5 c3                                                
a63f: a4 c4     -         ldy.zp $c4                      //  a63f   a4 c4                                                
a641: f0 0c     -         beq !Skip+                    //  a641   f0 0c                                                  
a643: 85 8b     -         sta $8b                      //  a643   85 8b                                                
a645: 84 8c     -         sty $8c                      //  a645   84 8c                                                
a647: a5 87     - CTRL_C_Pressed:lda $87                      //  a647   a5 87                                                
a649: a4 88     -         ldy $88                      //  a649   a4 88                                                
a64b: 85 89     -         sta $89                      //  a64b   85 89                                                
a64d: 84 8a     -         sty $8a                      //  a64d   84 8a                                                
a64f: 68        -         pla                          //  a64f   68                                               
a650: 68        -         pla                          //  a650   68                                               
a651: a9 99     - la651:  lda #$99                     //  a651   a9 99                                                  
a653: a0 a1     -         ldy #$a1                     //  a653   a0 a1                                                  
a655: a2 00     -         ldx #$00                     //  a655   a2 00                                                  
a657: 86 64     -         stx $64                      //  a657   86 64                                                
a659: 90 03     -         bcc !Skip+                    //  a659   90 03                                                  
a65b: 4c 69 a2  -         jmp PRINT_ERROR_LINNUM                    //  a65b   4c 69 a2                                               
a65e: 4c 74 a2  -         jmp RESTART                    //  a65e   4c 74 a2                                               
a661: d0 17     - CONT:   bne !RTS+                    //  a661   d0 17                                                  
a663: a2 1e     -         ldx #$1e                     //  a663   a2 1e                                                  
a665: a4 8c     -         ldy $8c                      //  a665   a4 8c                                                
a667: d0 03     -         bne !Skip+                    //  a667   d0 03                                                  
a669: 4c 4e a2  -         jmp ERROR                    //  a669   4c 4e a2                                               
a66c: a5 8b     -         lda $8b                      //  a66c   a5 8b                                                
a66e: 85 c3     -         sta.zp $c3                   //  a66e   85 c3                                                
a670: 84 c4     -         sty.zp $c4                    //  a670   84 c4                                                
a672: a5 89     -         lda $89                      //  a672   a5 89                                                
a674: a4 8a     -         ldy $8a                      //  a674   a4 8a                                                
a676: 85 87     -         sta $87                      //  a676   85 87                                                
a678: 84 88     -         sty $88                      //  a678   84 88                                                
a67a: 60        -         rts                          //  a67a   60
a67b: 20 ae b3  - NULL:   jsr GETBYT                    //  a67b   20 ae b3                                               
a67e: d0 fa     -         bne !RTS-                    //  a67e   d0 fa                                                  
a680: e8        -         inx                          //  a680   e8                                               
a681: e0 0a     -         cpx #$0a                     //  a681   e0 0a                                                  
a683: b0 04     -         bcs !Skip+                    //  a683   b0 04                                                  
a685: ca        -         dex                          //  a685   ca                                               
a686: 86 0d     -         stx $0d                      //  a686   86 0d                                                
a688: 60        -         rts                          //  a688   60                                               
a689: 4c 88 ae  -         jmp IQERR                    //  a689   4c 88 ae                                               
a68c: d0 ec     - CLEAR:  bne !RTS-                     //  a68c   d0 ec                                                  
a68e: 4c 7a a4  -         jmp CLEARC                    //  a68e   4c 7a a4                                               
a691: d0 03     - RUN:    bne !Skip+                    //  a691   d0 03                                                  
a693: 4c 77 a4  -         jmp SETPTRS                    //  a693   4c 77 a4                                               
a696: 20 7a a4  -         jsr CLEARC                    //  a696   20 7a a4                                               
a699: 4c b0 a6  -         jmp $a6b0                    //  a699   4c b0 a6                                               
a69c: a9 03     - GOSUB:  lda #$03                     //  a69c   a9 03                                                  
a69e: 20 12 a2  -         jsr CHKMEM                    //  a69e   20 12 a2                                               
a6a1: a5 c4     -         lda.zp $c4                    //  a6a1   a5 c4                                                
a6a3: 48        -         pha                          //  a6a3   48                                               
a6a4: a5 c3     -         lda.zp $c3                    //  a6a4   a5 c3                                                
a6a6: 48        -         pha                          //  a6a6   48                                               
a6a7: a5 88     -         lda $88                      //  a6a7   a5 88                                                
a6a9: 48        -         pha                          //  a6a9   48                                               
a6aa: a5 87     -         lda $87                      //  a6aa   a5 87                                                
a6ac: 48        -         pha                          //  a6ac   48                                               
a6ad: a9 8c     -         lda #$8c                     //  a6ad   a9 8c                                                  
a6af: 48        -         pha                          //  a6af   48                                               
a6b0: 20 c2 00  - la6b0:  jsr CHRGOT                    //  a6b0   20 c2 00                                               
a6b3: 20 b9 a6  -         jsr GOTO                     //  a6b3   20 b9 a6                                               
a6b6: 4c c2 a5  -         jmp NEWSTT                    //  a6b6   4c c2 a5                                               
a6b9: 20 7f a7  - GOTO:   jsr LINGET                    //  a6b9   20 7f a7                                               
a6bc: 20 1d a7  -         jsr REMN                     //  a6bc   20 1d a7                                               
a6bf: a5 88     -         lda $88                      //  a6bf   a5 88                                                
a6c1: c5 12     -         cmp $12                      //  a6c1   c5 12                                                
a6c3: b0 0b     -         bcs !Skip+                    //  a6c3   b0 0b                                                  
a6c5: 98        -         tya                          //  a6c5   98                                               
a6c6: 38        -         sec                          //  a6c6   38                                               
a6c7: 65 c3     -         adc.zp $c3                    //  a6c7   65 c3                                                
a6c9: a6 c4     -         ldx.zp $c4                    //  a6c9   a6 c4                                                
a6cb: 90 07     -         bcc !Skip++                   //  a6cb   90 07                                                  
a6cd: e8        -         inx                          //  a6cd   e8                                               
a6ce: b0 04     -         bcs !Skip++                   //  a6ce   b0 04                                                  
a6d0: a5 79     -         lda $79                      //  a6d0   a5 79                                                
a6d2: a6 7a     -         ldx $7a                      //  a6d2   a6 7a                                                
a6d4: 20 36 a4  -         jsr FL1                      //  a6d4   20 36 a4                                               
a6d7: 90 1e     -         bcc UNDERR                    //  a6d7   90 1e                                                  
a6d9: a5 aa     -         lda $aa                      //  a6d9   a5 aa                                                
a6db: e9 01     -         sbc #$01                     //  a6db   e9 01                                                  
a6dd: 85 c3     -         sta.zp $c3                    //  a6dd   85 c3                                                
a6df: a5 ab     -         lda $ab                      //  a6df   a5 ab                                                
a6e1: e9 00     -         sbc #$00                     //  a6e1   e9 00                                                  
a6e3: 85 c4     -         sta.zp $c4                    //  a6e3   85 c4                                                
a6e5: 60        - la6e5:  rts                          //  a6e5   60   
a6e6: d0 fd     - POP:    bne !RTS-                    //  a6e6   d0 fd                                                  
a6e8: a9 ff     -         lda #$ff                     //  a6e8   a9 ff                                                  
a6ea: 85 97     -         sta $97                      //  a6ea   85 97                                                
a6ec: 20 a1 a1  -         jsr $a1a1                    //  a6ec   20 a1 a1                                               
a6ef: 9a        -         txs                          //  a6ef   9a                                               
a6f0: c9 8c     -         cmp #$8c                     //  a6f0   c9 8c                                                  
a6f2: f0 0b     -         beq $a6ff                    //  a6f2   f0 0b                                                  
a6f4: a2 04     -         ldx #$04                     //  a6f4   a2 04                                                  
a6f6: 2c        -         .byte $2c                    //  a6f6   2c                                               
a6f7: a2 0e     - UNDERR: ldx #$0e                     //  a6f7   a2 0e 
a6f9: 4c 4e a2  -         jmp ERROR                    //  a6f9   4c 4e a2                                               
a6fc: 4c 0c ac  - SYNERR2:jmp $ac0c                    //  a6fc   4c 0c ac                                               
a6ff: 68        - RETURN: pla                          //  a6ff   68                                               
a700: 68        -         pla                          //  a700   68                                               
a701: 85 87     -         sta $87                      //  a701   85 87                                                
a703: 68        -         pla                          //  a703   68                                               
a704: 85 88     -         sta $88                      //  a704   85 88                                                
a706: 68        -         pla                          //  a706   68                                               
a707: 85 c3     -         sta.zp $c3                      //  a707   85 c3                                                
a709: 68        -         pla                          //  a709   68                                               
a70a: 85 c4     -         sta.zp $c4                      //  a70a   85 c4                                                
a70c: 20 1a a7  - DATA:   jsr $a71a                    //  a70c   20 1a a7                                               
a70f: 98        - ADDON:  tya                          //  a70f   98                                               
a710: 18        -         clc                          //  a710   18                                               
a711: 65 c3     -         adc.zp $c3                      //  a711   65 c3                                                
a713: 85 c3     -         sta.zp $c3                      //  a713   85 c3                                                
a715: 90 02     -         bcc !RTS+                    //  a715   90 02                                                  
a717: e6 c4     -         inc.zp $c4                      //  a717   e6 c4                                                
a719: 60        -         rts                          //  a719   60                                               
a71a: a2 3a     - DATAN:  ldx #$3a                     //  a71a   a2 3a                                                  
a71c: 2c        -         .byte $2c                    //  a71b   2c
a71d: a2 00     - REMN:   ldx #$00                     //  a71c   a2 00                                               
a71f: 86 5b     -         stx $5b                      //  a71f   86 5b                                                
a721: a0 00     -         ldy #$00                     //  a721   a0 00                                                  
a723: 84 5c     -         sty $5c                      //  a723   84 5c                                                
a725: a5 5c     -         lda $5c                      //  a725   a5 5c                                                
a727: a6 5b     -         ldx $5b                      //  a727   a6 5b                                                
a729: 85 5b     -         sta $5b                      //  a729   85 5b                                                
a72b: 86 5c     -         stx $5c                      //  a72b   86 5c                                                
a72d: b1 c3     -         lda ($c3),y                   //  a72d   b1 c3                                                   
a72f: f0 e8     -         beq !RTS-                    //  a72f   f0 e8                                                  
a731: c5 5c     -         cmp $5c                      //  a731   c5 5c                                                
a733: f0 e4     -         beq !RTS-                    //  a733   f0 e4                                                  
a735: c8        -         iny                          //  a735   c8                                               
a736: c9 22     -         cmp #$22                     //  a736   c9 22                                                  
a738: f0 eb     -         beq !Loop-                    //  a738   f0 eb                                                  
a73a: d0 f1     -         bne !Loop2-                   //  a73a   d0 f1                                                  
a73c: 20 c1 aa  - IF:     jsr $aac1                    //  a73c   20 c1 aa                                               
a73f: 20 c2 00  -         jsr $00c2                    //  a73f   20 c2 00                                               
a742: c9 88     -         cmp #$88                     //  a742   c9 88                                                  
a744: f0 05     -         beq !Skip+                    //  a744   f0 05                                                  
a746: a9 a0     -         lda #$a0                     //  a746   a9 a0                                                  
a748: 20 03 ac  -         jsr $ac03                    //  a748   20 03 ac                                               
a74b: a5 ac     -         lda $ac                              //  a74b   a5 ac                                                
a74d: d0 05     -         bne !Skip+                    //  a74d   d0 05                                                  
a74f: 20 1d a7  - REM:    jsr REMN                    //  a74f   20 1d a7                                               
a752: f0 bb     -         beq ADDON                    //  a752   f0 bb                                                  
a754: 20 c2 00  -         jsr $00c2                    //  a754   20 c2 00                                               
a757: b0 03     -         bcs !Skip+                   //  a757   b0 03                                                  
a759: 4c b9 a6  -         jmp GOTO                     //  a759   4c b9 a6                                               
a75c: 4c ff a5  -         jmp $a5ff                    //  a75c   4c ff a5                                               
a75f: 20 ae b3  - ON:     jsr $b3ae                    //  a75f   20 ae b3                                               
a762: 48        -         pha                          //  a762   48                                               
a763: c9 8c     -         cmp #$8c                     //  a763   c9 8c                                                  
a765: f0 04     -         beq $a76b                    //  a765   f0 04                                                  
a767: c9 88     - la767:  cmp #$88                     //  a767   c9 88                                                  
a769: d0 91     -         bne $a6fc                    //  a769   d0 91                                                  
a76b: c6 af     - la76b:  dec $af                      //  a76b   c6 af                                                
a76d: d0 04     -         bne $a773                    //  a76d   d0 04                                                  
a76f: 68        -         pla                          //  a76f   68                                               
a770: 4c 02 a6  -         jmp $a602                    //  a770   4c 02 a6                                               
a773: 20 bc 00  - la773:  jsr $00bc                    //  a773   20 bc 00                                               
a776: 20 7f a7  -         jsr $a77f                    //  a776   20 7f a7                                               
a779: c9 2c     -         cmp #$2c                     //  a779   c9 2c                                                  
a77b: f0 ee     -         beq $a76b                    //  a77b   f0 ee                                                  
a77d: 68        -         pla                          //  a77d   68                                               
a77e: 60        - la77e:  rts                          //  a77e   60                                               
a77f: a2 00     - LINGET: ldx #$00                     //  a77f   a2 00                                                  
a781: 86 11     -         stx $11                      //  a781   86 11                                                
a783: 86 12     -         stx $12                      //  a783   86 12                                                
a785: b0 f7     - la785:  bcs $a77e                    //  a785   b0 f7                                                  
a787: e9 2f     -         sbc #$2f                     //  a787   e9 2f                                                  
a789: 85 5b     -         sta $5b                      //  a789   85 5b                                                
a78b: a5 12     -         lda $12                      //  a78b   a5 12                                                
a78d: 85 71     -         sta $71                      //  a78d   85 71                                                
a78f: c9 19     -         cmp #$19                     //  a78f   c9 19                                                  
a791: b0 d4     -         bcs $a767                    //  a791   b0 d4                                                  
a793: a5 11     -         lda $11                      //  a793   a5 11                                                
a795: 0a        -         asl                          //  a795   0a                                                 
a796: 26 71     -         rol $71                      //  a796   26 71                                                
a798: 0a        -         asl                          //  a798   0a                                                 
a799: 26 71     -         rol $71                      //  a799   26 71                                                
a79b: 65 11     -         adc $11                      //  a79b   65 11                                                
a79d: 85 11     -         sta $11                      //  a79d   85 11                                                
a79f: a5 71     -         lda $71                      //  a79f   a5 71                                                
a7a1: 65 12     -         adc $12                      //  a7a1   65 12                                                
a7a3: 85 12     -         sta $12                      //  a7a3   85 12                                                
a7a5: 06 11     -         asl $11                      //  a7a5   06 11                                                
a7a7: 26 12     -         rol $12                      //  a7a7   26 12                                                
a7a9: a5 11     -         lda $11                      //  a7a9   a5 11                                                
a7ab: 65 5b     -         adc $5b                      //  a7ab   65 5b                                                
a7ad: 85 11     -         sta $11                      //  a7ad   85 11                                                
a7af: 90 02     -         bcc $a7b3                    //  a7af   90 02                                                  
a7b1: e6 12     -         inc $12                      //  a7b1   e6 12                                                
a7b3: 20 bc 00  - la7b3:  jsr $00bc                    //  a7b3   20 bc 00                                               
a7b6: 4c 85 a7  -         jmp $a785                    //  a7b6   4c 85 a7                                               
a7b9: 20 0b ad  - LET:    jsr $ad0b                    //  a7b9   20 0b ad                                               
a7bc: 85 97     -         sta $97                      //  a7bc   85 97                                                
a7be: 84 98     -         sty $98                      //  a7be   84 98                                                
a7c0: a9 ab     -         lda #$ab                     //  a7c0   a9 ab                                                  
a7c2: 20 03 ac  -         jsr $ac03                    //  a7c2   20 03 ac                                               
a7c5: a5 5f     -         lda $5f                      //  a7c5   a5 5f                                                
a7c7: 48        -         pha                          //  a7c7   48                                               
a7c8: 20 c1 aa  -         jsr $aac1                    //  a7c8   20 c1 aa                                               
a7cb: 68        -         pla                          //  a7cb   68                                               
a7cc: 2a        -         rol                          //  a7cc   2a                                                 
a7cd: 20 b3 aa  -         jsr $aab3                    //  a7cd   20 b3 aa                                               
a7d0: d0 03     -         bne $a7d5                    //  a7d0   d0 03                                                  
a7d2: 4c 74 b7  -         jmp $b774                    //  a7d2   4c 74 b7                                               
a7d5: a0 02     - LETSTRING:ldy #$02                     //  a7d5   a0 02                                                  
a7d7: b1 ae     -         lda ($ae),y                   //  a7d7   b1 ae                                                   
a7d9: c5 82     -         cmp $82                      //  a7d9   c5 82                                                
a7db: 90 17     -         bcc $a7f4                    //  a7db   90 17                                                  
a7dd: d0 07     -         bne $a7e6                    //  a7dd   d0 07                                                  
a7df: 88        -         dey                          //  a7df   88                                               
a7e0: b1 ae     -         lda ($ae),y                   //  a7e0   b1 ae                                                   
a7e2: c5 81     -         cmp $81                      //  a7e2   c5 81                                                
a7e4: 90 0e     -         bcc $a7f4                    //  a7e4   90 0e                                                  
a7e6: a4 af     - la7e6:  ldy $af                      //  a7e6   a4 af                                                
a7e8: c4 7c     -         cpy $7c                      //  a7e8   c4 7c                                                
a7ea: 90 08     -         bcc $a7f4                    //  a7ea   90 08                                                  
a7ec: d0 0d     -         bne $a7fb                    //  a7ec   d0 0d                                                  
a7ee: a5 ae     -         lda $ae                      //  a7ee   a5 ae                                                
a7f0: c5 7b     -         cmp $7b                      //  a7f0   c5 7b                                                
a7f2: b0 07     -         bcs $a7fb                    //  a7f2   b0 07                                                  
a7f4: a5 ae     - la7f4:  lda $ae                      //  a7f4   a5 ae                                                
a7f6: a4 af     -         ldy $af                      //  a7f6   a4 af                                                
a7f8: 4c 11 a8  -         jmp $a811                    //  a7f8   4c 11 a8                                               
a7fb: a0 00     - la7fb:  ldy #$00                     //  a7fb   a0 00                                                  
a7fd: b1 ae     -         lda ($ae),y                   //  a7fd   b1 ae                                                   
a7ff: 20 9c b0  -         jsr $b09c                    //  a7ff   20 9c b0                                               
a802: a5 9e     -         lda $9e                      //  a802   a5 9e                                                
a804: a4 9f     -         ldy $9f                      //  a804   a4 9f                                                
a806: 85 b8     -         sta $b8                      //  a806   85 b8                                                
a808: 84 b9     -         sty $b9                      //  a808   84 b9                                                
a80a: 20 8a b2  -         jsr $b28a                    //  a80a   20 8a b2                                               
a80d: a9 ac     -         lda #$ac                     //  a80d   a9 ac                                                  
a80f: a0 00     -         ldy #$00                     //  a80f   a0 00                                                  
a811: 85 9e     - la811:  sta $9e                      //  a811   85 9e                                                
a813: 84 9f     -         sty $9f                      //  a813   84 9f                                                
a815: 20 eb b2  -         jsr $b2eb                    //  a815   20 eb b2                                               
a818: a0 00     -         ldy #$00                     //  a818   a0 00                                                  
a81a: b1 9e     -         lda ($9e),y                   //  a81a   b1 9e                                                   
a81c: 91 97     -         sta ($97),y                   //  a81c   91 97                                                   
a81e: c8        -         iny                          //  a81e   c8                                               
a81f: b1 9e     -         lda ($9e),y                   //  a81f   b1 9e                                                   
a821: 91 97     -         sta ($97),y                   //  a821   91 97                                                   
a823: c8        -         iny                          //  a823   c8                                               
a824: b1 9e     -         lda ($9e),y                   //  a824   b1 9e                                                   
a826: 91 97     -         sta ($97),y                   //  a826   91 97                                                   
a828: 60        -         rts                          //  a828   60                                               
a829: 20 c6 a8  - PRSTRING:jsr $a8c6                    //  a829   20 c6 a8                                               
a82c: 20 c2 00  - la82c:  jsr $00c2                    //  a82c   20 c2 00                                               
a82f: f0 3b     - PRINT:  beq $a86c                    //  a82f   f0 3b                                                  
a831: f0 57     - PRINT2: beq $a88a                    //  a831   f0 57                                                  
a833: c9 9c     -         cmp #$9c                     //  a833   c9 9c                                                  
a835: f0 6b     -         beq $a8a2                    //  a835   f0 6b                                                  
a837: c9 9f     -         cmp #$9f                     //  a837   c9 9f                                                  
a839: f0 67     -         beq $a8a2                    //  a839   f0 67                                                  
a83b: c9 2c     -         cmp #$2c                     //  a83b   c9 2c                                                  
a83d: f0 4c     -         beq $a88b                    //  a83d   f0 4c                                                  
a83f: c9 3b     -         cmp #$3b                     //  a83f   c9 3b                                                  
a841: f0 7a     -         beq $a8bd                    //  a841   f0 7a                                                  
a843: 20 c1 aa  -         jsr $aac1                    //  a843   20 c1 aa                                               
a846: 24 5f     -         bit $5f                      //  a846   24 5f                                                
a848: 30 df     -         bmi $a829                    //  a848   30 df                                                  
a84a: 20 6e b9  -         jsr $b96e                    //  a84a   20 6e b9                                               
a84d: 20 ae b0  -         jsr $b0ae                    //  a84d   20 ae b0                                               
a850: a0 00     -         ldy #$00                     //  a850   a0 00                                                  
a852: b1 ae     -         lda ($ae),y                   //  a852   b1 ae                                                   
a854: 18        -         clc                          //  a854   18                                               
a855: 65 0e     -         adc $0e                      //  a855   65 0e                                                
a857: c5 0f     -         cmp $0f                      //  a857   c5 0f                                                
a859: 90 03     -         bcc $a85e                    //  a859   90 03                                                  
a85b: 20 6c a8  -         jsr $a86c                    //  a85b   20 6c a8                                               
a85e: 20 c6 a8  - la85e:  jsr $a8c6                    //  a85e   20 c6 a8                                               
a861: 20 e0 a8  -         jsr $a8e0                    //  a861   20 e0 a8                                               
a864: d0 c6     -         bne $a82c                    //  a864   d0 c6                                                  
a866: a0 00     - la866:  ldy #$00                     //  a866   a0 00                                                  
a868: 94 13     -         sty $13,x                    //  a868   94 13                                                  
a86a: a2 12     -         ldx #$12                     //  a86a   a2 12                                                  
a86c: a9 0d     - CRDO:   lda #$0d                     //  a86c   a9 0d                                                  
a86e: 85 0e     -         sta $0e                      //  a86e   85 0e                                                
a870: 20 e5 a8  -         jsr $a8e5                    //  a870   20 e5 a8                                               
a873: a9 0a     -         lda #$0a                     //  a873   a9 0a                                                  
a875: 20 e5 a8  -         jsr $a8e5                    //  a875   20 e5 a8                                               
a878: 8a        - PRINTNULLS:txa                          //  a878   8a                                               
a879: 48        -         pha                          //  a879   48                                               
a87a: a6 0d     -         ldx $0d                      //  a87a   a6 0d                                                
a87c: f0 08     -         beq $a886                    //  a87c   f0 08                                                  
a87e: a9 00     -         lda #$00                     //  a87e   a9 00                                                  
a880: 20 e5 a8  - la880:  jsr $a8e5                    //  a880   20 e5 a8                                               
a883: ca        -         dex                          //  a883   ca                                               
a884: d0 fa     -         bne $a880                    //  a884   d0 fa                                                  
a886: 86 0e     - la886:  stx $0e                      //  a886   86 0e                                                
a888: 68        -         pla                          //  a888   68                                               
a889: aa        -         tax                          //  a889   aa                                               
a88a: 60        - la88a:  rts                          //  a88a   60                                               
a88b: a5 0e     - la88b:  lda $0e                      //  a88b   a5 0e                                                
a88d: c5 10     -         cmp $10                      //  a88d   c5 10                                                
a88f: 90 06     -         bcc $a897                    //  a88f   90 06                                                  
a891: 20 6c a8  -         jsr $a86c                    //  a891   20 6c a8                                               
a894: 4c bd a8  -         jmp $a8bd                    //  a894   4c bd a8                                               
a897: 38        - la897:  sec                          //  a897   38                                               
a898: e9 0e     - la898:  sbc #$0e                     //  a898   e9 0e                                                  
a89a: b0 fc     -         bcs $a898                    //  a89a   b0 fc                                                  
a89c: 49 ff     -         eor #$ff                     //  a89c   49 ff                                                  
a89e: 69 01     -         adc #$01                     //  a89e   69 01                                                  
a8a0: d0 14     -         bne $a8b6                    //  a8a0   d0 14                                                  
a8a2: 48        - la8a2:  pha                          //  a8a2   48                                               
a8a3: 20 ab b3  -         jsr $b3ab                    //  a8a3   20 ab b3                                               
a8a6: c9 29     -         cmp #$29                     //  a8a6   c9 29                                                  
a8a8: d0 66     -         bne $a910                    //  a8a8   d0 66                                                  
a8aa: 68        -         pla                          //  a8aa   68                                               
a8ab: c9 9c     -         cmp #$9c                     //  a8ab   c9 9c                                                  
a8ad: d0 08     -         bne $a8b7                    //  a8ad   d0 08                                                  
a8af: 8a        -         txa                          //  a8af   8a                                               
a8b0: e5 0e     -         sbc $0e                      //  a8b0   e5 0e                                                
a8b2: 90 09     -         bcc $a8bd                    //  a8b2   90 09                                                  
a8b4: f0 07     -         beq $a8bd                    //  a8b4   f0 07                                                  
a8b6: aa        - la8b6:  tax                          //  a8b6   aa                                               
a8b7: 20 e0 a8  - la8b7:  jsr $a8e0                    //  a8b7   20 e0 a8                                               
a8ba: ca        -         dex                          //  a8ba   ca                                               
a8bb: d0 fa     -         bne $a8b7                    //  a8bb   d0 fa                                                  
a8bd: 20 bc 00  - la8bd:  jsr $00bc                    //  a8bd   20 bc 00                                               
a8c0: 4c 31 a8  -         jmp $a831                    //  a8c0   4c 31 a8                                               
a8c3: 20 ae b0  - STROUT: jsr $b0ae                    //  a8c3   20 ae b0                                               
a8c6: 20 b6 b2  - STRPRT: jsr $b2b6                    //  a8c6   20 b6 b2                                               
a8c9: aa        -         tax                          //  a8c9   aa                                               
a8ca: a0 00     -         ldy #$00                     //  a8ca   a0 00                                                  
a8cc: e8        -         inx                          //  a8cc   e8                                               
a8cd: ca        - la8cd:  dex                          //  a8cd   ca                                               
a8ce: f0 ba     -         beq $a88a                    //  a8ce   f0 ba                                                  
a8d0: b1 71     -         lda ($71),y                   //  a8d0   b1 71                                                   
a8d2: 20 e5 a8  -         jsr $a8e5                    //  a8d2   20 e5 a8                                               
a8d5: c8        -         iny                          //  a8d5   c8                                               
a8d6: c9 0d     -         cmp #$0d                     //  a8d6   c9 0d                                                  
a8d8: d0 f3     -         bne $a8cd                    //  a8d8   d0 f3                                                  
a8da: 20 78 a8  -         jsr $a878                    //  a8da   20 78 a8                                               
a8dd: 4c cd a8  -         jmp $a8cd                    //  a8dd   4c cd a8                                               
a8e0: a9 20     - OUTSP:  lda #$20                     //  a8e0   a9 20                                                  
a8e2: 2c        -         .byte $2c                    //  a8e2   2c      
a8e3: a9 3f     - OUTQUES:lda #$3f                     //  a8e3   a9 3f                          
a8e5: 24 64     - OUTDO:  bit $64                      //  a8e5   24 64                                                
a8e7: 30 18     -         bmi $a901                    //  a8e7   30 18                                                  
a8e9: 48        -         pha                          //  a8e9   48                                               
a8ea: c9 20     -         cmp #$20                     //  a8ea   c9 20                                                  
a8ec: 90 0b     -         bcc $a8f9                    //  a8ec   90 0b                                                  
a8ee: a5 0e     -         lda $0e                      //  a8ee   a5 0e                                                
a8f0: c5 0f     -         cmp $0f                      //  a8f0   c5 0f                                                
a8f2: d0 03     -         bne $a8f7                    //  a8f2   d0 03                                                  
a8f4: 20 6c a8  -         jsr $a86c                    //  a8f4   20 6c a8                                               
a8f7: e6 0e     - la8f7:  inc $0e                      //  a8f7   e6 0e                                                
a8f9: 68        - la8f9:  pla                          //  a8f9   68                                               
a8fa: 20 ee ff  -         jsr $ffee                    //  a8fa   20 ee ff                                               
a8fd: ea        -         nop                          //  a8fd   ea                                               
a8fe: ea        -         nop                          //  a8fe   ea                                               
a8ff: ea        -         nop                          //  a8ff   ea                                               
a900: ea        -         nop                          //  a900   ea                                               
a901: 29 ff     - la901:  and #$ff                     //  a901   29 ff                                                  
a903: 60        -         rts                          //  a903   60                                               
a904: a5 62     - INPUTERR:lda $62                      //  a904   a5 62                                                
a906: f0 0b     -         beq $a913                    //  a906   f0 0b                                                  
a908: a5 8d     -         lda $8d                      //  a908   a5 8d                                                
a90a: a4 8e     -         ldy $8e                      //  a90a   a4 8e                                                
a90c: 85 87     -         sta $87                      //  a90c   85 87                                                
a90e: 84 88     -         sty $88                      //  a90e   84 88                                                
a910: 4c 0c ac  - SYNERR4:jmp $ac0c                    //  a910   4c 0c ac                                               
a913: a9 2d     - RESPERR:lda #$2d                     //  a913   a9 2d                                                  
a915: a0 aa     -         ldy #$aa                     //  a915   a0 aa                                                  
a917: 20 c3 a8  -         jsr $a8c3                    //  a917   20 c3 a8                                               
a91a: a5 8b     -         lda $8b                      //  a91a   a5 8b                                                
a91c: a4 8c     -         ldy $8c                      //  a91c   a4 8c                                                
a91e: 85 c3     -         sta.zp $c3                      //  a91e   85 c3                                                
a920: 84 c4     -         sty.zp $c4                      //  a920   84 c4                                                
a922: 60        -         rts                          //  a922   60                                               
a923: 46 64     - GET,INPUT:lsr $64                      //  a923   46 64                                                
a925: c9 22     -         cmp #$22                     //  a925   c9 22                                                  
a927: d0 0b     -         bne $a934                    //  a927   d0 0b                                                  
a929: 20 c1 ab  -         jsr $abc1                    //  a929   20 c1 ab                                               
a92c: a9 3b     -         lda #$3b                     //  a92c   a9 3b                                                  
a92e: 20 03 ac  -         jsr $ac03                    //  a92e   20 03 ac                                               
a931: 20 c6 a8  -         jsr $a8c6                    //  a931   20 c6 a8                                               
a934: 20 d4 af  - la934:  jsr $afd4                    //  a934   20 d4 af                                               
a937: a9 2c     -         lda #$2c                     //  a937   a9 2c                                                  
a939: 85 12     -         sta $12                      //  a939   85 12                                                
a93b: 20 46 a9  -         jsr $a946                    //  a93b   20 46 a9                                               
a93e: a5 13     -         lda $13                      //  a93e   a5 13                                                
a940: d0 12     -         bne $a954                    //  a940   d0 12                                                  
a942: 18        -         clc                          //  a942   18                                               
a943: 4c 47 a6  -         jmp $a647                    //  a943   4c 47 a6                                               
a946: 20 e3 a8  - NXIN:   jsr $a8e3                    //  a946   20 e3 a8                                               
a949: 20 e0 a8  -         jsr $a8e0                    //  a949   20 e0 a8                                               
a94c: 4c 57 a3  -         jmp $a357                    //  a94c   4c 57 a3                                               
a94f: a6 8f     - READ:   ldx $8f                      //  a94f   a6 8f                                                
a951: a4 90     -         ldy $90                      //  a951   a4 90                                                
a953: a9        -         .byte $a9                    //  a953   a9                                                 
a954: 98        - L2ABE:  tya                          //  a954
a955: 85 62     -         sta.zp $62                    //  a955   85 62                                                
a957: 86 91     -         stx.zp $91                    //  a957   86 91                                                
a959: 84 92     -         sty.zp $92                    //  a959   84 92                                                
a95b: 20 0b ad  - PROCESS_INPUT_ITEM:jsr $ad0b                    //  a95b   20 0b ad                                               
a95e: 85 97     -         sta $97                      //  a95e   85 97                                                
a960: 84 98     -         sty $98                      //  a960   84 98                                                
a962: a5 c3     -         lda.zp $c3                      //  a962   a5 c3                                                
a964: a4 c4     -         ldy.zp $c4                      //  a964   a4 c4                                                
a966: 85 11     -         sta $11                      //  a966   85 11                                                
a968: 84 12     -         sty $12                      //  a968   84 12                                                
a96a: a6 91     -         ldx $91                      //  a96a   a6 91                                                
a96c: a4 92     -         ldy $92                      //  a96c   a4 92                                                
a96e: 86 c3     -         stx.zp $c3                      //  a96e   86 c3                                                
a970: 84 c4     -         sty.zp $c4                      //  a970   84 c4                                                
a972: 20 c2 00  -         jsr $00c2                    //  a972   20 c2 00                                               
a975: d0 0e     -         bne $a985                    //  a975   d0 0e                                                  
a977: 24 62     -         bit $62                      //  a977   24 62                                                
a979: 30 62     -         bmi $a9dd                    //  a979   30 62                                                  
a97b: 20 e3 a8  -         jsr $a8e3                    //  a97b   20 e3 a8                                               
a97e: 20 46 a9  -         jsr $a946                    //  a97e   20 46 a9                                               
a981: 86 c3     -         stx.zp $c3                      //  a981   86 c3                                                
a983: 84 c4     -         sty.zp $c4                      //  a983   84 c4                                                
a985: 20 bc 00  - INSTART:jsr $00bc                    //  a985   20 bc 00                                               
a988: 24 5f     -         bit $5f                      //  a988   24 5f                                                
a98a: 10 24     -         bpl $a9b0                    //  a98a   10 24                                                  
a98c: 85 5b     -         sta $5b                      //  a98c   85 5b                                                
a98e: c9 22     -         cmp #$22                     //  a98e   c9 22                                                  
a990: f0 07     -         beq $a999                    //  a990   f0 07                                                  
a992: a9 3a     -         lda #$3a                     //  a992   a9 3a                                                  
a994: 85 5b     -         sta $5b                      //  a994   85 5b                                                
a996: a9 2c     -         lda #$2c                     //  a996   a9 2c                                                  
a998: 18        -         clc                          //  a998   18                                               
a999: 85 5c     - la999:  sta $5c                      //  a999   85 5c                                                
a99b: a5 c3     -         lda.zp $c3                      //  a99b   a5 c3                                                
a99d: a4 c4     -         ldy.zp $c4                      //  a99d   a4 c4                                                
a99f: 69 00     -         adc #$00                     //  a99f   69 00                                                  
a9a1: 90 01     -         bcc $a9a4                    //  a9a1   90 01                                                  
a9a3: c8        -         iny                          //  a9a3   c8                                               
a9a4: 20 b4 b0  - la9a4:  jsr $b0b4                    //  a9a4   20 b4 b0                                               
a9a7: 20 f3 b3  -         jsr $b3f3                    //  a9a7   20 f3 b3                                               
a9aa: 20 d5 a7  -         jsr $a7d5                    //  a9aa   20 d5 a7                                               
a9ad: 4c b6 a9  -         jmp $a9b6                    //  a9ad   4c b6 a9                                               
a9b0: 20 87 b8  -         jsr $b887                    //  a9b0   20 87 b8                                               
a9b3: 20 74 b7  -         jsr $b774                    //  a9b3   20 74 b7                                               
a9b6: 20 c2 00  - INPUT_MORE:jsr $00c2                    //  a9b6   20 c2 00                                               
a9b9: f0 07     -         beq $a9c2                    //  a9b9   f0 07                                                  
a9bb: c9 2c     -         cmp #$2c                     //  a9bb   c9 2c                                                  
a9bd: f0 03     -         beq $a9c2                    //  a9bd   f0 03                                                  
a9bf: 4c 04 a9  -         jmp $a904                    //  a9bf   4c 04 a9                                               
a9c2: a5 c3     - la9c2:  lda.zp $c3                      //  a9c2   a5 c3                                                
a9c4: a4 c4     -         ldy.zp $c4                      //  a9c4   a4 c4                                                
a9c6: 85 91     -         sta $91                      //  a9c6   85 91                                                
a9c8: 84 92     -         sty $92                      //  a9c8   84 92                                                
a9ca: a5 11     -         lda $11                      //  a9ca   a5 11                                                
a9cc: a4 12     -         ldy $12                      //  a9cc   a4 12                                                
a9ce: 85 c3     -         sta.zp $c3                      //  a9ce   85 c3                                                
a9d0: 84 c4     -         sty.zp $c4                      //  a9d0   84 c4                                                
a9d2: 20 c2 00  -         jsr $00c2                    //  a9d2   20 c2 00                                               
a9d5: f0 2c     -         beq $aa03                    //  a9d5   f0 2c                                                  
a9d7: 20 01 ac  -         jsr $ac01                    //  a9d7   20 01 ac                                               
a9da: 4c 5b a9  -         jmp $a95b                    //  a9da   4c 5b a9                                               
a9dd: 20 1a a7  - FINDATA:jsr $a71a                    //  a9dd   20 1a a7                                               
a9e0: c8        -         iny                          //  a9e0   c8                                               
a9e1: aa        -         tax                          //  a9e1   aa                                               
a9e2: d0 12     -         bne $a9f6                    //  a9e2   d0 12                                                  
a9e4: a2 06     -         ldx #$06                     //  a9e4   a2 06                                                  
a9e6: c8        -         iny                          //  a9e6   c8                                               
a9e7: b1 c3     -         lda ($c3),y                   //  a9e7   b1 c3                                                   
a9e9: f0 69     -         beq $aa54                    //  a9e9   f0 69                                                  
a9eb: c8        -         iny                          //  a9eb   c8                                               
a9ec: b1 c3     -         lda ($c3),y                   //  a9ec   b1 c3                                                   
a9ee: 85 8d     -         sta $8d                      //  a9ee   85 8d                                                
a9f0: c8        -         iny                          //  a9f0   c8                                               
a9f1: b1 c3     -         lda ($c3),y                   //  a9f1   b1 c3                                                   
a9f3: c8        -         iny                          //  a9f3   c8                                               
a9f4: 85 8e     -         sta $8e                      //  a9f4   85 8e                                                
a9f6: b1 c3     - la9f6:  lda ($c3),y                   //  a9f6   b1 c3                                                   
a9f8: aa        -         tax                          //  a9f8   aa                                               
a9f9: 20 0f a7  -         jsr $a70f                    //  a9f9   20 0f a7                                               
a9fc: e0 83     -         cpx #$83                     //  a9fc   e0 83                                                  
a9fe: d0 dd     -         bne $a9dd                    //  a9fe   d0 dd                                                  
aa00: 4c 85 a9  -         jmp $a985                    //  aa00   4c 85 a9                                               
aa03: a5 91     - INPDONE:lda $91                      //  aa03   a5 91                                                
aa05: a4 92     -         ldy $92                      //  aa05   a4 92                                                
aa07: a6 62     -         ldx $62                      //  aa07   a6 62                                                
aa09: f0 03     -         beq $aa0e                    //  aa09   f0 03                                                  
aa0b: 4c 24 a6  -         jmp $a624                    //  aa0b   4c 24 a6                                               
aa0e: a0 00     - laa0e:  ldy #$00                     //  aa0e   a0 00                                                  
aa10: b1 91     -         lda ($91),y                   //  aa10   b1 91                                                   
aa12: f0 07     -         beq $aa1b                    //  aa12   f0 07                                                  
aa14: a9 1c     -         lda #$1c                     //  aa14   a9 1c                                                  
aa16: a0 aa     -         ldy #$aa                     //  aa16   a0 aa                                                  
aa18: 4c c3 a8  -         jmp $a8c3                    //  aa18   4c c3 a8                                               
aa1b: 60        - laa1b:  rts                          //  aa1b   60                                               
aa1c: 3f        - ERREXTRA:.byte $3f                    //  aa1c   3f         %00111111 '?'                                                     
aa1d: 45 58     -         eor $58                      //  aa1d   45 58                                                
aa1f: 54        -         .byte $54                    //  aa1f   54         %01010100 'T'                                                     
aa20: 52        -         .byte $52                    //  aa20   52         %01010010 'R'                                                     
aa21: 41 20     -         eor ($20,x)                   //  aa21   41 20                                                   
aa23: 49 47     -         eor #$47                     //  aa23   49 47                                                  
aa25: 4e 4f 52  -         lsr $524f                    //  aa25   4e 4f 52                                               
aa28: 45 44     -         eor $44                      //  aa28   45 44                                                
aa2a: 0d 0a 00  -         ora.abs $000a                    //  aa2a   0d 0a 00 
aa2d: 3f        - ERRREENTRY:.byte $3f                    //  aa2d   3f         %00111111 '?'                                                     
aa2e: 52        -         .byte $52                    //  aa2e   52         %01010010 'R'                                                     
aa2f: 45 44     -         eor $44                      //  aa2f   45 44                                                
aa31: 4f        -         .byte $4f                    //  aa31   4f         %01001111 'O'                                                     
aa32: 20 46 52  -         jsr $5246                    //  aa32   20 46 52                                               
aa35: 4f        -         .byte $4f                    //  aa35   4f         %01001111 'O'                                                     
aa36: 4d 20 53  -         eor $5320                    //  aa36   4d 20 53                                               
aa39: 54        -         .byte $54                    //  aa39   54         %01010100 'T'                                                     
aa3a: 41 52     -         eor ($52,x)                   //  aa3a   41 52                                                   
aa3c: 54        -         .byte $54                    //  aa3c   54         %01010100 'T'                                                     
aa3d: 0d 0a 00  -         ora.abs $000a                    //  aa3d   0d 0a 00                                               
aa40: d0 04     - NEXT:   bne $aa46                    //  aa40   d0 04                                                  
aa42: a0 00     -         ldy #$00                     //  aa42   a0 00                                                  
aa44: f0 03     -         beq $aa49                    //  aa44   f0 03                                                  
aa46: 20 0b ad  - NEXT1:  jsr $ad0b                    //  aa46   20 0b ad                                               
aa49: 85 97     - NEXT2:  sta $97                      //  aa49   85 97                                                
aa4b: 84 98     -         sty $98                      //  aa4b   84 98                                                
aa4d: 20 a1 a1  -         jsr $a1a1                    //  aa4d   20 a1 a1                                               
aa50: f0 04     -         beq $aa56                    //  aa50   f0 04                                                  
aa52: a2 00     -         ldx #$00                     //  aa52   a2 00                                                  
aa54: f0 68     - GERR:   beq $aabe                    //  aa54   f0 68                                                  
aa56: 9a        - NEXT3:  txs                          //  aa56   9a                                               
aa57: e8        -         inx                          //  aa57   e8                                               
aa58: e8        -         inx                          //  aa58   e8                                               
aa59: e8        -         inx                          //  aa59   e8                                               
aa5a: e8        -         inx                          //  aa5a   e8                                               
aa5b: 8a        -         txa                          //  aa5b   8a                                               
aa5c: e8        -         inx                          //  aa5c   e8                                               
aa5d: e8        -         inx                          //  aa5d   e8                                               
aa5e: e8        -         inx                          //  aa5e   e8                                               
aa5f: e8        -         inx                          //  aa5f   e8                                               
aa60: e8        -         inx                          //  aa60   e8                                               
aa61: 86 73     -         stx $73                      //  aa61   86 73                                                
aa63: a0 01     -         ldy #$01                     //  aa63   a0 01                                                  
aa65: 20 4b b7  -         jsr $b74b                    //  aa65   20 4b b7                                               
aa68: ba        -         tsx                          //  aa68   ba                                               
aa69: bd 08 01  -         lda $0108,x                   //  aa69   bd 08 01                                                 
aa6c: 85 b0     -         sta $b0                      //  aa6c   85 b0                                                
aa6e: a5 97     -         lda $97                      //  aa6e   a5 97                                                
aa70: a4 98     -         ldy $98                      //  aa70   a4 98                                                
aa72: 20 6c b4  -         jsr $b46c                    //  aa72   20 6c b4                                               
aa75: 20 74 b7  -         jsr $b774                    //  aa75   20 74 b7                                               
aa78: a0 01     -         ldy #$01                     //  aa78   a0 01                                                  
aa7a: 20 fa b7  -         jsr $b7fa                    //  aa7a   20 fa b7                                               
aa7d: ba        -         tsx                          //  aa7d   ba                                               
aa7e: 38        -         sec                          //  aa7e   38                                               
aa7f: fd 08 01  -         sbc $0108,x                   //  aa7f   fd 08 01                                                 
aa82: f0 17     -         beq $aa9b                    //  aa82   f0 17                                                  
aa84: bd 0d 01  -         lda $010d,x                   //  aa84   bd 0d 01                                                 
aa87: 85 87     -         sta $87                      //  aa87   85 87                                                
aa89: bd 0e 01  -         lda $010e,x                   //  aa89   bd 0e 01                                                 
aa8c: 85 88     -         sta $88                      //  aa8c   85 88                                                
aa8e: bd 10 01  -         lda $0110,x                   //  aa8e   bd 10 01                                                 
aa91: 85 c3     -         sta.zp $c3                      //  aa91   85 c3                                                
aa93: bd 0f 01  -         lda $010f,x                   //  aa93   bd 0f 01                                                 
aa96: 85 c4     -         sta.zp $c4                      //  aa96   85 c4                                                
aa98: 4c c2 a5  - laa98:  jmp $a5c2                    //  aa98   4c c2 a5                                               
aa9b: 8a        - laa9b:  txa                          //  aa9b   8a                                               
aa9c: 69 0f     -         adc #$0f                     //  aa9c   69 0f                                                  
aa9e: aa        -         tax                          //  aa9e   aa                                               
aa9f: 9a        -         txs                          //  aa9f   9a                                               
aaa0: 20 c2 00  -         jsr $00c2                    //  aaa0   20 c2 00                                               
aaa3: c9 2c     -         cmp #$2c                     //  aaa3   c9 2c                                                  
aaa5: d0 f1     -         bne $aa98                    //  aaa5   d0 f1                                                  
aaa7: 20 bc 00  -         jsr $00bc                    //  aaa7   20 bc 00                                               
aaaa: 20 46 aa  -         jsr $aa46                    //  aaaa   20 46 aa                                               
aaad: 20 c1 aa  - FRMNUM: jsr $aac1                    //  aaad   20 c1 aa                                               
aab0: 18        - CHKNUM: clc                          //  aab0   18                                               
aab1: 24        -         .byte $24                    //  aab1   24
aab2: 38        - CHKSTR: sec                          //  aab2   38  
aab3: 24 5f     - CHKVAL: bit $5f                      //  aab3   24 5f                                                
aab5: 30 03     -         bmi $aaba                    //  aab5   30 03                                                  
aab7: b0 03     -         bcs $aabc                    //  aab7   b0 03                                                  
aab9: 60        - laab9:  rts                          //  aab9   60                                               
aaba: b0 fd     - laaba:  bcs $aab9                    //  aaba   b0 fd                                                  
aabc: a2 18     - laabc:  ldx #$18                     //  aabc   a2 18                                                  
aabe: 4c 4e a2  - JERROR: jmp $a24e                    //  aabe   4c 4e a2                                               
aac1: a6 c3     - FRMEVL: ldx.zp $c3                    //  aac1   a6 c3                                                
aac3: d0 02     -         bne $aac7                    //  aac3   d0 02                                                  
aac5: c6 c4     -         dec.zp $c4                    //  aac5   c6 c4                                                
aac7: c6 c3     - laac7:  dec.zp $c3                    //  aac7   c6 c3                                                
aac9: a2 00     -         ldx #$00                     //  aac9   a2 00                                                  
aacb: 24        -         .byte $24                    //  aacb   24 48                                                
aacc: 48        - FRMEVL1:pha                          //  aacc   48                                                
aacd: 8a        -         txa                          //  aacd   8a                                               
aace: 48        -         pha                          //  aace   48                                               
aacf: a9 01     -         lda #$01                     //  aacf   a9 01                                                  
aad1: 20 12 a2  -         jsr $a212                    //  aad1   20 12 a2                                               
aad4: 20 a0 ab  -         jsr $aba0                    //  aad4   20 a0 ab                                               
aad7: a9 00     -         lda #$00                     //  aad7   a9 00                                                  
aad9: 85 9b     -         sta $9b                      //  aad9   85 9b                                                
aadb: 20 c2 00  - FRMEVL2:jsr $00c2                    //  aadb   20 c2 00                                               
aade: 38        - laade:  sec                          //  aade   38                                               
aadf: e9 aa     -         sbc #$aa                     //  aadf   e9 aa                                                  
aae1: 90 17     -         bcc $aafa                    //  aae1   90 17                                                  
aae3: c9 03     -         cmp #$03                     //  aae3   c9 03                                                  
aae5: b0 13     -         bcs $aafa                    //  aae5   b0 13                                                  
aae7: c9 01     -         cmp #$01                     //  aae7   c9 01                                                  
aae9: 2a        -         rol                          //  aae9   2a                                                 
aaea: 49 01     -         eor #$01                     //  aaea   49 01                                                  
aaec: 45 9b     -         eor $9b                      //  aaec   45 9b                                                
aaee: c5 9b     -         cmp $9b                      //  aaee   c5 9b                                                
aaf0: 90 61     -         bcc $ab53                    //  aaf0   90 61                                                  
aaf2: 85 9b     -         sta $9b                      //  aaf2   85 9b                                                
aaf4: 20 bc 00  -         jsr $00bc                    //  aaf4   20 bc 00                                               
aaf7: 4c de aa  -         jmp $aade                    //  aaf7   4c de aa                                               
aafa: a6 9b     - laafa:  ldx $9b                      //  aafa   a6 9b                                                
aafc: d0 2c     -         bne $ab2a                    //  aafc   d0 2c                                                  
aafe: b0 78     -         bcs $ab78                    //  aafe   b0 78                                                  
ab00: 69 07     -         adc #$07                     //  ab00   69 07                                                  
ab02: 90 74     -         bcc $ab78                    //  ab02   90 74                                                  
ab04: 65 5f     -         adc $5f                      //  ab04   65 5f                                                
ab06: d0 03     -         bne $ab0b                    //  ab06   d0 03                                                  
ab08: 4c 4d b2  -         jmp $b24d                    //  ab08   4c 4d b2                                               
ab0b: 69 ff     - lab0b:  adc #$ff                     //  ab0b   69 ff                                                  
ab0d: 85 71     -         sta $71                      //  ab0d   85 71                                                
ab0f: 0a        -         asl                          //  ab0f   0a                                                 
ab10: 65 71     -         adc $71                      //  ab10   65 71                                                
ab12: a8        -         tay                          //  ab12   a8                                               
ab13: 68        - FRM_PRECEDENCE_TEST:pla                          //  ab13   68                                               
ab14: d9 66 a0  -         cmp $a066,y                   //  ab14   d9 66 a0                                                 
ab17: b0 64     -         bcs $ab7d                    //  ab17   b0 64                                                  
ab19: 20 b0 aa  -         jsr $aab0                    //  ab19   20 b0 aa                                               
ab1c: 48        - lab1c:  pha                          //  ab1c   48                                               
ab1d: 20 43 ab  - lab1d:  jsr $ab43                    //  ab1d   20 43 ab                                               
ab20: 68        -         pla                          //  ab20   68                                               
ab21: a4 99     -         ldy $99                      //  ab21   a4 99                                                
ab23: 10 17     -         bpl $ab3c                    //  ab23   10 17                                                  
ab25: aa        -         tax                          //  ab25   aa                                               
ab26: f0 53     -         beq $ab7b                    //  ab26   f0 53                                                  
ab28: d0 5c     -         bne $ab86                    //  ab28   d0 5c                                                  
ab2a: 46 5f     - FRM_RELATIONAL:lsr $5f                      //  ab2a   46 5f                                                
ab2c: 8a        -         txa                          //  ab2c   8a                                               
ab2d: 2a        -         rol                          //  ab2d   2a                                                 
ab2e: a6 c3     -         ldx.zp $c3                      //  ab2e   a6 c3                                                
ab30: d0 02     -         bne $ab34                    //  ab30   d0 02                                                  
ab32: c6 c4     -         dec.zp $c4                      //  ab32   c6 c4                                                
ab34: c6 c3     - lab34:  dec.zp $c3                      //  ab34   c6 c3                                                
ab36: a0 1b     -         ldy #$1b                     //  ab36   a0 1b                                                  
ab38: 85 9b     -         sta $9b                      //  ab38   85 9b                                                
ab3a: d0 d7     -         bne $ab13                    //  ab3a   d0 d7                                                  
ab3c: d9 66 a0  - PREFNC: cmp $a066,y                   //  ab3c   d9 66 a0                                                 
ab3f: b0 45     -         bcs $ab86                    //  ab3f   b0 45                                                  
ab41: 90 d9     -         bcc $ab1c                    //  ab41   90 d9                                                  
ab43: b9 68 a0  - FRM_RECURSE:lda $a068,y                   //  ab43   b9 68 a0                                                 
ab46: 48        -         pha                          //  ab46   48                                               
ab47: b9 67 a0  -         lda $a067,y                   //  ab47   b9 67 a0                                                 
ab4a: 48        -         pha                          //  ab4a   48                                               
ab4b: 20 56 ab  -         jsr $ab56                    //  ab4b   20 56 ab                                               
ab4e: a5 9b     -         lda $9b                      //  ab4e   a5 9b                                                
ab50: 4c cc aa  -         jmp $aacc                    //  ab50   4c cc aa                                               
ab53: 4c 0c ac  - SNTXERR:jmp $ac0c                    //  ab53   4c 0c ac                                               
ab56: a5 b0     - FRM_STACK1:lda $b0                      //  ab56   a5 b0                                                
ab58: be 66 a0  -         ldx $a066,y                   //  ab58   be 66 a0                                                 
ab5b: a8        - FRM_STACK2:tay                          //  ab5b   a8                                               
ab5c: 68        -         pla                          //  ab5c   68                                               
ab5d: 85 71     -         sta $71                      //  ab5d   85 71     
ab5f: e6 71     -         inc $71                      //  ab5f   e6 71    // bug: assumes not on page boundary                                                
ab61: 68        -         pla                          //  ab61   68                                               
ab62: 85 72     -         sta $72                      //  ab62   85 72                                                
ab64: 98        -         tya                          //  ab64   98                                               
ab65: 48        -         pha                          //  ab65   48                                               
ab66: 20 ba b7  - FRM_STACK3:jsr $b7ba                    //  ab66   20 ba b7                                               
ab69: a5 af     -         lda $af                      //  ab69   a5 af                                                
ab6b: 48        -         pha                          //  ab6b   48                                               
ab6c: a5 ae     -         lda $ae                      //  ab6c   a5 ae                                                
ab6e: 48        -         pha                          //  ab6e   48                                               
ab6f: a5 ad     -         lda $ad                      //  ab6f   a5 ad                                                
ab71: 48        -         pha                          //  ab71   48                                               
ab72: a5 ac     -         lda $ac                      //  ab72   a5 ac                                                
ab74: 48        -         pha                          //  ab74   48                                               
ab75: 6c 71 00  -         jmp ($0071)                   //  ab75   6c 71 00                                                 
ab78: a0 ff     - lab78:  ldy #$ff                     //  ab78   a0 ff                                                  
ab7a: 68        -         pla                          //  ab7a   68                                               
ab7b: f0 20     - GOEX:   beq $ab9d                    //  ab7b   f0 20                                                  
ab7d: c9 64     - FRM_PERFORM1:cmp #$64                     //  ab7d   c9 64                                                  
ab7f: f0 03     -         beq $ab84                    //  ab7f   f0 03                                                  
ab81: 20 b0 aa  -         jsr $aab0                    //  ab81   20 b0 aa                                               
ab84: 84 99     - lab84:  sty $99                      //  ab84   84 99                                                
ab86: 68        - FRM_PERFORM2:pla                          //  ab86   68                                               
ab87: 4a        -         lsr                          //  ab87   4a                                                 
ab88: 85 63     -         sta $63                      //  ab88   85 63                                                
ab8a: 68        -         pla                          //  ab8a   68                                               
ab8b: 85 b3     -         sta $b3                      //  ab8b   85 b3                                                
ab8d: 68        -         pla                          //  ab8d   68                                               
ab8e: 85 b4     -         sta $b4                      //  ab8e   85 b4                                                
ab90: 68        -         pla                          //  ab90   68                                               
ab91: 85 b5     -         sta $b5                      //  ab91   85 b5                                                
ab93: 68        -         pla                          //  ab93   68                                               
ab94: 85 b6     -         sta $b6                      //  ab94   85 b6                                                
ab96: 68        -         pla                          //  ab96   68                                               
ab97: 85 b7     -         sta $b7                      //  ab97   85 b7                                                
ab99: 45 b0     -         eor $b0                      //  ab99   45 b0                                                
ab9b: 85 b8     -         sta $b8                      //  ab9b   85 b8                                                
ab9d: a5 ac     - EXIT:   lda $ac                      //  ab9d   a5 ac                                                
ab9f: 60        -         rts                          //  ab9f   60                                               
aba0: a9 00     - FRM_ELEMENT:lda #$00                     //  aba0   a9 00                                                  
aba2: 85 5f     -         sta $5f                      //  aba2   85 5f                                                
aba4: 20 bc 00  - laba4:  jsr $00bc                    //  aba4   20 bc 00                                               
aba7: b0 03     -         bcs $abac                    //  aba7   b0 03                                                  
aba9: 4c 87 b8  - laba9:  jmp $b887                    //  aba9   4c 87 b8                                               
abac: 20 81 ad  - labac:  jsr $ad81                    //  abac   20 81 ad                                               
abaf: b0 67     -         bcs $ac18                    //  abaf   b0 67                                                  
abb1: c9 2e     - CON_PI: cmp #$2e                     //  abb1   c9 2e                                                  
abb3: f0 f4     -         beq $aba9                    //  abb3   f0 f4                                                  
abb5: c9 a4     -         cmp #$a4                     //  abb5   c9 a4                                                  
abb7: f0 58     -         beq $ac11                    //  abb7   f0 58                                                  
abb9: c9 a3     -         cmp #$a3                     //  abb9   c9 a3                                                  
abbb: f0 e7     -         beq $aba4                    //  abbb   f0 e7                                                  
abbd: c9 22     -         cmp #$22                     //  abbd   c9 22                                                  
abbf: d0 0f     -         bne $abd0                    //  abbf   d0 0f                                                  
abc1: a5 c3     - STRTXT: lda.zp $c3                      //  abc1   a5 c3                                                
abc3: a4 c4     -         ldy.zp $c4                      //  abc3   a4 c4                                                
abc5: 69 00     -         adc #$00                     //  abc5   69 00                                                  
abc7: 90 01     -         bcc $abca                    //  abc7   90 01                                                  
abc9: c8        -         iny                          //  abc9   c8                                               
abca: 20 ae b0  - labca:  jsr $b0ae                    //  abca   20 ae b0                                               
abcd: 4c f3 b3  -         jmp $b3f3                    //  abcd   4c f3 b3                                               
abd0: c9 a1     - NOT_:   cmp #$a1                     //  abd0   c9 a1                                                  
abd2: d0 13     -         bne $abe7                    //  abd2   d0 13                                                  
abd4: a0 18     -         ldy #$18                     //  abd4   a0 18                                                  
abd6: d0 3b     -         bne $ac13                    //  abd6   d0 3b                                                  
abd8: 20 05 ae  - EQUOP:  jsr $ae05                    //  abd8   20 05 ae                                               
abdb: a5 af     -         lda $af                      //  abdb   a5 af                                                
abdd: 49 ff     -         eor #$ff                     //  abdd   49 ff                                                  
abdf: a8        -         tay                          //  abdf   a8                                               
abe0: a5 ae     -         lda $ae                      //  abe0   a5 ae                                                
abe2: 49 ff     -         eor #$ff                     //  abe2   49 ff                                                  
abe4: 4c c1 af  -         jmp $afc1                    //  abe4   4c c1 af                                               
abe7: c9 9e     - labe7:  cmp #$9e                     //  abe7   c9 9e                                                  
abe9: d0 03     -         bne $abee                    //  abe9   d0 03                                                  
abeb: 4c 1e b0  -         jmp $b01e                    //  abeb   4c 1e b0                                               
abee: c9 ad     - labee:  cmp #$ad                     //  abee   c9 ad                                                  
abf0: 90 03     -         bcc $abf5                    //  abf0   90 03                                                  
abf2: 4c 27 ac  -         jmp $ac27                    //  abf2   4c 27 ac                                               
abf5: 20 fe ab  - PARCHK: jsr $abfe                    //  abf5   20 fe ab                                               
abf8: 20 c1 aa  -         jsr $aac1                    //  abf8   20 c1 aa                                               
abfb: a9 29     - CHKCLS: lda #$29                     //  abfb   a9 29                                                  
abfd: 2c        -         .byte $2c                    //  abfd   2c
abfe: a9 28     - CHKOPN: lda #$28                     //  abfe   a9 28
ac00: 2c        -         .byte $2c                    //  ac00   2c
ac01: a9 2c     - CHKCOM: lda #$2c                     //  ac01   a9 2c                                                                                         ldy #$00                     //  ac03   a0 00                                                  
ac03: a0 00     - SYNCHR: ldy #$00                     //  ac03   a0 00
ac05: d1 c3     -         cmp ($c3),y                   //  ac05   d1 c3                                                   
ac07: d0 03     -         bne $ac0c                    //  ac07   d0 03                                                  
ac09: 4c bc 00  -         jmp $00bc                    //  ac09   4c bc 00                                               
ac0c: a2 02     - SYNERR: ldx #$02                     //  ac0c   a2 02                                                  
ac0e: 4c 4e a2  -         jmp $a24e                    //  ac0e   4c 4e a2                                               
ac11: a0 15     - MIN:    ldy #$15                     //  ac11   a0 15                                                  
ac13: 68        - EQUL:   pla                          //  ac13   68                                               
ac14: 68        -         pla                          //  ac14   68                                               
ac15: 4c 1d ab  -         jmp $ab1d                    //  ac15   4c 1d ab                                               
ac18: 20 0b ad  - FRM_VARIABLE,FRM_VARIABLE_CALL-2:jsr $ad0b                    //  ac18   20 0b ad                                               
ac1b: 85 ae     -         sta $ae                      //  ac1b   85 ae                                                
ac1d: 84 af     -         sty $af                      //  ac1d   84 af                                                
ac1f: a6 5f     -         ldx $5f                      //  ac1f   a6 5f                                                
ac21: f0 01     -         beq $ac24                    //  ac21   f0 01                                                  
ac23: 60        -         rts                          //  ac23   60                                               
ac24: 4c 4b b7  - lac24:  jmp $b74b                    //  ac24   4c 4b b7                                               
ac27: 0a        - UNARY:  asl                          //  ac27   0a                                                 
ac28: 48        -         pha                          //  ac28   48                                               
ac29: aa        -         tax                          //  ac29   aa                                               
ac2a: 20 bc 00  -         jsr $00bc                    //  ac2a   20 bc 00                                               
ac2d: e0 81     -         cpx #$81                     //  ac2d   e0 81                                                  
ac2f: 90 20     -         bcc $ac51                    //  ac2f   90 20                                                  
ac31: 20 fe ab  -         jsr $abfe                    //  ac31   20 fe ab                                               
ac34: 20 c1 aa  -         jsr $aac1                    //  ac34   20 c1 aa                                               
ac37: 20 01 ac  -         jsr $ac01                    //  ac37   20 01 ac                                               
ac3a: 20 b2 aa  -         jsr $aab2                    //  ac3a   20 b2 aa                                               
ac3d: 68        -         pla                          //  ac3d   68                                               
ac3e: aa        -         tax                          //  ac3e   aa                                               
ac3f: a5 af     -         lda $af                      //  ac3f   a5 af                                                
ac41: 48        -         pha                          //  ac41   48                                               
ac42: a5 ae     -         lda $ae                      //  ac42   a5 ae                                                
ac44: 48        -         pha                          //  ac44   48                                               
ac45: 8a        -         txa                          //  ac45   8a                                               
ac46: 48        -         pha                          //  ac46   48                                               
ac47: 20 ae b3  -         jsr $b3ae                    //  ac47   20 ae b3                                               
ac4a: 68        -         pla                          //  ac4a   68                                               
ac4b: a8        -         tay                          //  ac4b   a8                                               
ac4c: 8a        -         txa                          //  ac4c   8a                                               
ac4d: 48        -         pha                          //  ac4d   48                                               
ac4e: 4c 56 ac  -         jmp $ac56                    //  ac4e   4c 56 ac                                               
ac51: 20 f5 ab  - lac51:  jsr $abf5                    //  ac51   20 f5 ab                                               
ac54: 68        -         pla                          //  ac54   68                                               
ac55: a8        -         tay                          //  ac55   a8                                               
ac56: b9 de 9f  - lac56:  lda $9fde,y                   //  ac56   b9 de 9f                                                 
ac59: 85 a2     -         sta $a2                      //  ac59   85 a2                                                
ac5b: b9 df 9f  -         lda $9fdf,y                   //  ac5b   b9 df 9f                                                 
ac5e: 85 a3     -         sta $a3                      //  ac5e   85 a3                                                
ac60: 20 a1 00  -         jsr $00a1                    //  ac60   20 a1 00                                               
ac63: 4c b0 aa  -         jmp $aab0                    //  ac63   4c b0 aa                                               
ac66: a0 ff     - OR:     ldy #$ff                     //  ac66   a0 ff                                                  
ac68: 2c        -         .byte $2c                    //  ac68   2c
ac69: a0 00     - TAND:   ldy #$00                     //  ac69   a0 00
ac6b: 84 5d     -         sty $5d                      //  ac6b   84 5d                                                
ac6d: 20 05 ae  -         jsr $ae05                    //  ac6d   20 05 ae                                               
ac70: a5 ae     -         lda $ae                      //  ac70   a5 ae                                                
ac72: 45 5d     -         eor $5d                      //  ac72   45 5d                                                
ac74: 85 5b     -         sta $5b                      //  ac74   85 5b                                                
ac76: a5 af     -         lda $af                      //  ac76   a5 af                                                
ac78: 45 5d     -         eor $5d                      //  ac78   45 5d                                                
ac7a: 85 5c     -         sta $5c                      //  ac7a   85 5c                                                
ac7c: 20 9b b7  -         jsr $b79b                    //  ac7c   20 9b b7                                               
ac7f: 20 05 ae  -         jsr $ae05                    //  ac7f   20 05 ae                                               
ac82: a5 af     -         lda $af                      //  ac82   a5 af                                                
ac84: 45 5d     -         eor $5d                      //  ac84   45 5d                                                
ac86: 25 5c     -         and $5c                      //  ac86   25 5c                                                
ac88: 45 5d     -         eor $5d                      //  ac88   45 5d                                                
ac8a: a8        -         tay                          //  ac8a   a8                                               
ac8b: a5 ae     -         lda $ae                      //  ac8b   a5 ae                                                
ac8d: 45 5d     -         eor $5d                      //  ac8d   45 5d                                                
ac8f: 25 5b     -         and $5b                      //  ac8f   25 5b                                                
ac91: 45 5d     -         eor $5d                      //  ac91   45 5d                                                
ac93: 4c c1 af  -         jmp $afc1                    //  ac93   4c c1 af                                               
ac96: 20 b3 aa  - RELOPS: jsr $aab3                    //  ac96   20 b3 aa                                               
ac99: b0 13     -         bcs $acae                    //  ac99   b0 13                                                  
ac9b: a5 b7     -         lda $b7                      //  ac9b   a5 b7                                                
ac9d: 09 7f     -         ora #$7f                     //  ac9d   09 7f                                                  
ac9f: 25 b4     -         and $b4                      //  ac9f   25 b4                                                
aca1: 85 b4     -         sta $b4                      //  aca1   85 b4                                                
aca3: a9 b3     -         lda #$b3                     //  aca3   a9 b3                                                  
aca5: a0 00     -         ldy #$00                     //  aca5   a0 00                                                  
aca7: 20 f8 b7  -         jsr $b7f8                    //  aca7   20 f8 b7                                               
acaa: aa        -         tax                          //  acaa   aa                                               
acab: 4c e1 ac  -         jmp $ace1                    //  acab   4c e1 ac                                               
acae: a9 00     - STRCMP: lda #$00                     //  acae   a9 00                                                  
acb0: 85 5f     -         sta $5f                      //  acb0   85 5f                                                
acb2: c6 9b     -         dec $9b                      //  acb2   c6 9b                                                
acb4: 20 b6 b2  -         jsr $b2b6                    //  acb4   20 b6 b2                                               
acb7: 85 ac     -         sta $ac                      //  acb7   85 ac                                                
acb9: 86 ad     -         stx $ad                      //  acb9   86 ad                                                
acbb: 84 ae     -         sty $ae                      //  acbb   84 ae                                                
acbd: a5 b5     -         lda $b5                      //  acbd   a5 b5                                                
acbf: a4 b6     -         ldy $b6                      //  acbf   a4 b6                                                
acc1: 20 ba b2  -         jsr $b2ba                    //  acc1   20 ba b2                                               
acc4: 86 b5     -         stx $b5                      //  acc4   86 b5                                                
acc6: 84 b6     -         sty $b6                      //  acc6   84 b6                                                
acc8: aa        -         tax                          //  acc8   aa                                               
acc9: 38        -         sec                          //  acc9   38                                               
acca: e5 ac     -         sbc $ac                      //  acca   e5 ac                                                
accc: f0 08     -         beq $acd6                    //  accc   f0 08                                                  
acce: a9 01     -         lda #$01                     //  acce   a9 01                                                  
acd0: 90 04     -         bcc $acd6                    //  acd0   90 04                                                  
acd2: a6 ac     -         ldx $ac                      //  acd2   a6 ac                                                
acd4: a9 ff     -         lda #$ff                     //  acd4   a9 ff                                                  
acd6: 85 b0     - lacd6:  sta $b0                      //  acd6   85 b0                                                
acd8: a0 ff     -         ldy #$ff                     //  acd8   a0 ff                                                  
acda: e8        -         inx                          //  acda   e8                                               
acdb: c8        - STRCMP1:iny                          //  acdb   c8                                               
acdc: ca        -         dex                          //  acdc   ca                                               
acdd: d0 07     -         bne $ace6                    //  acdd   d0 07                                                  
acdf: a6 b0     -         ldx $b0                      //  acdf   a6 b0                                                
ace1: 30 0f     - NUMCMP: bmi $acf2                    //  ace1   30 0f                                                  
ace3: 18        -         clc                          //  ace3   18                                               
ace4: 90 0c     -         bcc $acf2                    //  ace4   90 0c                                                  
ace6: b1 b5     - lace6:  lda ($b5),y                   //  ace6   b1 b5                                                   
ace8: d1 ad     -         cmp ($ad),y                   //  ace8   d1 ad                                                   
acea: f0 ef     -         beq $acdb                    //  acea   f0 ef                                                  
acec: a2 ff     -         ldx #$ff                     //  acec   a2 ff                                                  
acee: b0 02     -         bcs $acf2                    //  acee   b0 02                                                  
acf0: a2 01     -         ldx #$01                     //  acf0   a2 01                                                  
acf2: e8        - CMPDONE:inx                          //  acf2   e8                                               
acf3: 8a        -         txa                          //  acf3   8a                                               
acf4: 2a        -         rol                          //  acf4   2a                                                 
acf5: 25 63     -         and $63                      //  acf5   25 63                                                
acf7: f0 02     -         beq $acfb                    //  acf7   f0 02                                                  
acf9: a9 ff     -         lda #$ff                     //  acf9   a9 ff                                                  
acfb: 4c db b7  - lacfb:  jmp $b7db                    //  acfb   4c db b7                                               
acfe: 20 01 ac  - NXDIM:  jsr $ac01                    //  acfe   20 01 ac                                               
ad01: aa        - DIM:    tax                          //  ad01   aa                                               
ad02: 20 10 ad  -         jsr $ad10                    //  ad02   20 10 ad                                               
ad05: 20 c2 00  -         jsr $00c2                    //  ad05   20 c2 00                                               
ad08: d0 f4     -         bne $acfe                    //  ad08   d0 f4                                                  
ad0a: 60        -         rts                          //  ad0a   60                                               
ad0b: a2 00     - PTRGET: ldx #$00                     //  ad0b   a2 00                                                  
ad0d: 20 c2 00  -         jsr $00c2                    //  ad0d   20 c2 00                                               
ad10: 86 5e     - PTRGET2:stx $5e                      //  ad10   86 5e                                                
ad12: 85 93     - PTRGET3:sta $93                      //  ad12   85 93                                                
ad14: 20 c2 00  -         jsr $00c2                    //  ad14   20 c2 00                                               
ad17: 20 81 ad  -         jsr $ad81                    //  ad17   20 81 ad                                               
ad1a: b0 03     -         bcs $ad1f                    //  ad1a   b0 03                                                  
ad1c: 4c 0c ac  -         jmp $ac0c                    //  ad1c   4c 0c ac                                               
ad1f: a2 00     - NAMOK:  ldx #$00                     //  ad1f   a2 00                                                  
ad21: 86 5f     -         stx $5f                      //  ad21   86 5f                                                
ad23: 20 bc 00  -         jsr $00bc                    //  ad23   20 bc 00                                               
ad26: 90 05     -         bcc $ad2d                    //  ad26   90 05                                                  
ad28: 20 81 ad  -         jsr $ad81                    //  ad28   20 81 ad                                               
ad2b: 90 0b     -         bcc $ad38                    //  ad2b   90 0b                                                  
ad2d: aa        - lad2d:  tax                          //  ad2d   aa                                               
ad2e: 20 bc 00  - lad2e:  jsr $00bc                    //  ad2e   20 bc 00                                               
ad31: 90 fb     -         bcc $ad2e                    //  ad31   90 fb                                                  
ad33: 20 81 ad  -         jsr $ad81                    //  ad33   20 81 ad                                               
ad36: b0 f6     -         bcs $ad2e                    //  ad36   b0 f6                                                  
ad38: c9 24     - lad38:  cmp #$24                     //  ad38   c9 24                                                  
ad3a: d0 0b     -         bne $ad47                    //  ad3a   d0 0b                                                  
ad3c: a9 ff     -         lda #$ff                     //  ad3c   a9 ff                                                  
ad3e: 85 5f     -         sta $5f                      //  ad3e   85 5f                                                
ad40: 8a        -         txa                          //  ad40   8a                                               
ad41: 09 80     -         ora #$80                     //  ad41   09 80                                                  
ad43: aa        -         tax                          //  ad43   aa                                               
ad44: 20 bc 00  -         jsr $00bc                    //  ad44   20 bc 00                                               
ad47: 86 94     - lad47:  stx $94                      //  ad47   86 94                                                
ad49: 38        -         sec                          //  ad49   38                                               
ad4a: 05 61     -         ora $61                      //  ad4a   05 61                                                
ad4c: e9 28     -         sbc #$28                     //  ad4c   e9 28                                                  
ad4e: d0 03     -         bne $ad53                    //  ad4e   d0 03                                                  
ad50: 4c 17 ae  -         jmp $ae17                    //  ad50   4c 17 ae                                               
ad53: a9 00     - lad53:  lda #$00                     //  ad53   a9 00                                                  
ad55: 85 61     -         sta $61                      //  ad55   85 61                                                
ad57: a5 7b     -         lda $7b                      //  ad57   a5 7b                                                
ad59: a6 7c     -         ldx $7c                      //  ad59   a6 7c                                                
ad5b: a0 00     -         ldy #$00                     //  ad5b   a0 00                                                  
ad5d: 86 ab     - lad5d:  stx $ab                      //  ad5d   86 ab                                                
ad5f: 85 aa     - lad5f:  sta $aa                      //  ad5f   85 aa                                                
ad61: e4 7e     -         cpx $7e                      //  ad61   e4 7e                                                
ad63: d0 04     -         bne $ad69                    //  ad63   d0 04                                                  
ad65: c5 7d     -         cmp $7d                      //  ad65   c5 7d                                                
ad67: f0 22     -         beq $ad8b                    //  ad67   f0 22                                                  
ad69: a5 93     - lad69:  lda $93                      //  ad69   a5 93                                                
ad6b: d1 aa     -         cmp ($aa),y                   //  ad6b   d1 aa                                                   
ad6d: d0 08     -         bne $ad77                    //  ad6d   d0 08                                                  
ad6f: a5 94     -         lda $94                      //  ad6f   a5 94                                                
ad71: c8        -         iny                          //  ad71   c8                                               
ad72: d1 aa     -         cmp ($aa),y                   //  ad72   d1 aa                                                   
ad74: f0 61     -         beq $add7                    //  ad74   f0 61                                                  
ad76: 88        -         dey                          //  ad76   88                                               
ad77: 18        - lad77:  clc                          //  ad77   18                                               
ad78: a5 aa     -         lda $aa                      //  ad78   a5 aa                                                
ad7a: 69 06     -         adc #$06                     //  ad7a   69 06                                                  
ad7c: 90 e1     -         bcc $ad5f                    //  ad7c   90 e1                                                  
ad7e: e8        -         inx                          //  ad7e   e8                                               
ad7f: d0 dc     -         bne $ad5d                    //  ad7f   d0 dc                                                  
ad81: c9 41     - ISLETC: cmp #$41                     //  ad81   c9 41                                                  
ad83: 90 05     -         bcc $ad8a                    //  ad83   90 05                                                  
ad85: e9 5b     -         sbc #$5b                     //  ad85   e9 5b                                                  
ad87: 38        -         sec                          //  ad87   38                                               
ad88: e9 a5     -         sbc #$a5                     //  ad88   e9 a5                                                  
ad8a: 60        - lad8a:  rts                          //  ad8a   60                                               
ad8b: 68        - NAMENOTFOUND:pla                          //  ad8b   68                                               
ad8c: 48        -         pha                          //  ad8c   48                                               
ad8d: c9 1a     -         cmp #$1a                     //  ad8d   c9 1a                                                  
ad8f: d0 07     -         bne $ad98                    //  ad8f   d0 07                                                  
ad91: a9 96     -         lda #$96                     //  ad91   a9 96                                                  
ad93: a0 ad     -         ldy #$ad                     //  ad93   a0 ad                                                  
ad95: 60        -         rts                          //  ad95   60                                               
ad96: 00        - C_ZERO: brk                          //  ad96   00                                               
ad97: 00        -         brk                          //  ad97   00                                               
ad98: a5 7d     - MAKENEWVARIABLE:lda $7d                      //  ad98   a5 7d                                                
ad9a: a4 7e     -         ldy $7e                      //  ad9a   a4 7e                                                
ad9c: 85 aa     -         sta $aa                      //  ad9c   85 aa                                                
ad9e: 84 ab     -         sty $ab                      //  ad9e   84 ab                                                
ada0: a5 7f     -         lda $7f                      //  ada0   a5 7f                                                
ada2: a4 80     -         ldy $80                      //  ada2   a4 80                                                
ada4: 85 a6     -         sta $a6                      //  ada4   85 a6                                                
ada6: 84 a7     -         sty $a7                      //  ada6   84 a7                                                
ada8: 18        -         clc                          //  ada8   18                                               
ada9: 69 06     -         adc #$06                     //  ada9   69 06                                                  
adab: 90 01     -         bcc $adae                    //  adab   90 01                                                  
adad: c8        -         iny                          //  adad   c8                                               
adae: 85 a4     - ladae:  sta $a4                      //  adae   85 a4                                                
adb0: 84 a5     -         sty $a5                      //  adb0   84 a5                                                
adb2: 20 cf a1  -         jsr $a1cf                    //  adb2   20 cf a1                                               
adb5: a5 a4     -         lda $a4                      //  adb5   a5 a4                                                
adb7: a4 a5     -         ldy $a5                      //  adb7   a4 a5                                                
adb9: c8        -         iny                          //  adb9   c8                                               
adba: 85 7d     -         sta $7d                      //  adba   85 7d                                                
adbc: 84 7e     -         sty $7e                      //  adbc   84 7e                                                
adbe: a0 00     -         ldy #$00                     //  adbe   a0 00                                                  
adc0: a5 93     -         lda $93                      //  adc0   a5 93                                                
adc2: 91 aa     -         sta ($aa),y                   //  adc2   91 aa                                                   
adc4: c8        -         iny                          //  adc4   c8                                               
adc5: a5 94     -         lda $94                      //  adc5   a5 94                                                
adc7: 91 aa     -         sta ($aa),y                   //  adc7   91 aa                                                   
adc9: a9 00     -         lda #$00                     //  adc9   a9 00                                                  
adcb: c8        -         iny                          //  adcb   c8                                               
adcc: 91 aa     -         sta ($aa),y                   //  adcc   91 aa                                                   
adce: c8        -         iny                          //  adce   c8                                               
adcf: 91 aa     -         sta ($aa),y                   //  adcf   91 aa                                                   
add1: c8        -         iny                          //  add1   c8                                               
add2: 91 aa     -         sta ($aa),y                   //  add2   91 aa                                                   
add4: c8        -         iny                          //  add4   c8                                               
add5: 91 aa     -         sta ($aa),y                   //  add5   91 aa                                                   
add7: a5 aa     - SET_VARPNT_AND_YA:lda $aa                      //  add7   a5 aa                                                
add9: 18        -         clc                          //  add9   18                                               
adda: 69 02     -         adc #$02                     //  adda   69 02                                                  
addc: a4 ab     -         ldy $ab                      //  addc   a4 ab                                                
adde: 90 01     -         bcc $ade1                    //  adde   90 01                                                  
ade0: c8        -         iny                          //  ade0   c8                                               
ade1: 85 95     - lade1:  sta $95                      //  ade1   85 95                                                
ade3: 84 96     -         sty $96                      //  ade3   84 96                                                
ade5: 60        -         rts                          //  ade5   60                                               
ade6: a5 5d     - GETARY: lda $5d                      //  ade6   a5 5d                                                
ade8: 0a        -         asl                          //  ade8   0a                                                 
ade9: 69 05     -         adc #$05                     //  ade9   69 05                                                  
adeb: 65 aa     -         adc $aa                      //  adeb   65 aa                                                
aded: a4 ab     -         ldy $ab                      //  aded   a4 ab                                                
adef: 90 01     -         bcc $adf2                    //  adef   90 01                                                  
adf1: c8        -         iny                          //  adf1   c8                                               
adf2: 85 a4     - ladf2:  sta $a4                      //  adf2   85 a4                                                
adf4: 84 a5     -         sty $a5                      //  adf4   84 a5                                                
adf6: 60        -         rts                          //  adf6   60                                               
adf7: 90 80     - NEG32768:bcc $ad79                    //  adf7   90 80                                                  
adf9: 00        -         brk                          //  adf9   00                                               
adfa: 00        -         brk                          //  adfa   00                                               
adfb: 20 bc 00  - MAKINT: jsr $00bc                    //  adfb   20 bc 00                                               
adfe: 20 ad aa  -         jsr $aaad                    //  adfe   20 ad aa       // ----------------------------------------------------------------------------
ae01: a5 b0     - MKINT:  lda $b0                      //  ae01   a5 b0                                                
ae03: 30 0d     -         bmi $ae12                    //  ae03   30 0d                                                  
ae05: a5 ac     - AYINT:  lda $ac                      //  ae05   a5 ac                                                
ae07: c9 90     -         cmp #$90                     //  ae07   c9 90                                                  
ae09: 90 09     -         bcc $ae14                    //  ae09   90 09                                                  
ae0b: a9 f7     -         lda #$f7                     //  ae0b   a9 f7                                                  
ae0d: a0 ad     -         ldy #$ad                     //  ae0d   a0 ad                                                  
ae0f: 20 f8 b7  -         jsr $b7f8                    //  ae0f   20 f8 b7                                               
ae12: d0 74     - MI1:    bne $ae88                    //  ae12   d0 74                                                  
ae14: 4c 31 b8  - MI2:    jmp $b831                    //  ae14   4c 31 b8                                               
ae17: a5 5e     - ARRAY:  lda $5e                      //  ae17   a5 5e                                                
ae19: 48        -         pha                          //  ae19   48                                               
ae1a: a5 5f     -         lda $5f                      //  ae1a   a5 5f                                                
ae1c: 48        -         pha                          //  ae1c   48                                               
ae1d: a0 00     -         ldy #$00                     //  ae1d   a0 00                                                  
ae1f: 98        - lae1f:  tya                          //  ae1f   98                                               
ae20: 48        -         pha                          //  ae20   48                                               
ae21: a5 94     -         lda $94                      //  ae21   a5 94                                                
ae23: 48        -         pha                          //  ae23   48                                               
ae24: a5 93     -         lda $93                      //  ae24   a5 93                                                
ae26: 48        -         pha                          //  ae26   48                                               
ae27: 20 fb ad  -         jsr $adfb                    //  ae27   20 fb ad                                               
ae2a: 68        -         pla                          //  ae2a   68                                               
ae2b: 85 93     -         sta $93                      //  ae2b   85 93                                                
ae2d: 68        -         pla                          //  ae2d   68                                               
ae2e: 85 94     -         sta $94                      //  ae2e   85 94                                                
ae30: 68        -         pla                          //  ae30   68                                               
ae31: a8        -         tay                          //  ae31   a8                                               
ae32: ba        -         tsx                          //  ae32   ba                                               
ae33: bd 02 01  -         lda $0102,x                   //  ae33   bd 02 01                                                 
ae36: 48        -         pha                          //  ae36   48                                               
ae37: bd 01 01  -         lda $0101,x                   //  ae37   bd 01 01                                                 
ae3a: 48        -         pha                          //  ae3a   48                                               
ae3b: a5 ae     -         lda $ae                      //  ae3b   a5 ae                                                
ae3d: 9d 02 01  -         sta $0102,x                   //  ae3d   9d 02 01                                                 
ae40: a5 af     -         lda $af                      //  ae40   a5 af                                                
ae42: 9d 01 01  -         sta $0101,x                   //  ae42   9d 01 01                                                 
ae45: c8        -         iny                          //  ae45   c8                                               
ae46: 20 c2 00  -         jsr $00c2                    //  ae46   20 c2 00                                               
ae49: c9 2c     -         cmp #$2c                     //  ae49   c9 2c                                                  
ae4b: f0 d2     -         beq $ae1f                    //  ae4b   f0 d2                                                  
ae4d: 84 5d     -         sty $5d                      //  ae4d   84 5d                                                
ae4f: 20 fb ab  -         jsr $abfb                    //  ae4f   20 fb ab                                               
ae52: 68        -         pla                          //  ae52   68                                               
ae53: 85 5f     -         sta $5f                      //  ae53   85 5f                                                
ae55: 68        -         pla                          //  ae55   68                                               
ae56: 85 5e     -         sta $5e                      //  ae56   85 5e                                                
ae58: a6 7d     -         ldx $7d                      //  ae58   a6 7d                                                
ae5a: a5 7e     -         lda $7e                      //  ae5a   a5 7e                                                
ae5c: 86 aa     - lae5c:  stx $aa                      //  ae5c   86 aa                                                
ae5e: 85 ab     -         sta $ab                      //  ae5e   85 ab                                                
ae60: c5 80     -         cmp $80                      //  ae60   c5 80                                                
ae62: d0 04     -         bne $ae68                    //  ae62   d0 04                                                  
ae64: e4 7f     -         cpx $7f                      //  ae64   e4 7f                                                
ae66: f0 39     -         beq $aea1                    //  ae66   f0 39                                                  
ae68: a0 00     - lae68:  ldy #$00                     //  ae68   a0 00                                                  
ae6a: b1 aa     -         lda ($aa),y                   //  ae6a   b1 aa                                                   
ae6c: c8        -         iny                          //  ae6c   c8                                               
ae6d: c5 93     -         cmp $93                      //  ae6d   c5 93                                                
ae6f: d0 06     -         bne $ae77                    //  ae6f   d0 06                                                  
ae71: a5 94     -         lda $94                      //  ae71   a5 94                                                
ae73: d1 aa     -         cmp ($aa),y                   //  ae73   d1 aa                                                   
ae75: f0 16     -         beq $ae8d                    //  ae75   f0 16                                                  
ae77: c8        - lae77:  iny                          //  ae77   c8                                               
ae78: b1 aa     -         lda ($aa),y                   //  ae78   b1 aa                                                   
ae7a: 18        -         clc                          //  ae7a   18                                               
ae7b: 65 aa     -         adc $aa                      //  ae7b   65 aa                                                
ae7d: aa        -         tax                          //  ae7d   aa                                               
ae7e: c8        -         iny                          //  ae7e   c8                                               
ae7f: b1 aa     -         lda ($aa),y                   //  ae7f   b1 aa                                                   
ae81: 65 ab     -         adc $ab                      //  ae81   65 ab                                                
ae83: 90 d7     -         bcc $ae5c                    //  ae83   90 d7                                                  
ae85: a2 10     - SUBERR: ldx #$10                     //  ae85   a2 10                                                  
ae87: 2c        -         .byte $2c                    //  ae87   2c                                              
ae88: a2 08     - IQERR:  ldx #$08                     //  ae88   a2 08
ae8a: 4c 4e a2  - JER:    jmp $a24e                    //  ae8a   4c 4e a2                                               
ae8d: a2 12     - USE_OLD_ARRAY:ldx #$12                     //  ae8d   a2 12                                                  
ae8f: a5 5e     -         lda $5e                      //  ae8f   a5 5e                                                
ae91: d0 f7     -         bne $ae8a                    //  ae91   d0 f7                                                  
ae93: 20 e6 ad  -         jsr $ade6                    //  ae93   20 e6 ad                                               
ae96: a5 5d     -         lda $5d                      //  ae96   a5 5d                                                
ae98: a0 04     -         ldy #$04                     //  ae98   a0 04                                                  
ae9a: d1 aa     -         cmp ($aa),y                   //  ae9a   d1 aa                                                   
ae9c: d0 e7     -         bne $ae85                    //  ae9c   d0 e7                                                  
ae9e: 4c 24 af  -         jmp $af24                    //  ae9e   4c 24 af                                               
aea1: 20 e6 ad  - MAKE_NEW_ARRAY:jsr $ade6                    //  aea1   20 e6 ad                                               
aea4: 20 1f a2  -         jsr $a21f                    //  aea4   20 1f a2                                               
aea7: a9 00     -         lda #$00                     //  aea7   a9 00                                                  
aea9: a8        -         tay                          //  aea9   a8                                               
aeaa: 85 bb     -         sta $bb                      //  aeaa   85 bb                                                
aeac: a2 04     -         ldx #$04                     //  aeac   a2 04                                                  
aeae: 86 ba     -         stx $ba                      //  aeae   86 ba                                                
aeb0: a5 93     -         lda $93                      //  aeb0   a5 93                                                
aeb2: 91 aa     -         sta ($aa),y                   //  aeb2   91 aa                                                   
aeb4: c8        -         iny                          //  aeb4   c8                                               
aeb5: a5 94     -         lda $94                      //  aeb5   a5 94                                                
aeb7: 91 aa     -         sta ($aa),y                   //  aeb7   91 aa                                                   
aeb9: a5 5d     -         lda $5d                      //  aeb9   a5 5d                                                
aebb: c8        -         iny                          //  aebb   c8                                               
aebc: c8        -         iny                          //  aebc   c8                                               
aebd: c8        -         iny                          //  aebd   c8                                               
aebe: 91 aa     -         sta ($aa),y                   //  aebe   91 aa                                                   
aec0: a2 0b     - laec0:  ldx #$0b                     //  aec0   a2 0b                                                  
aec2: a9 00     -         lda #$00                     //  aec2   a9 00                                                  
aec4: 24 5e     -         bit $5e                      //  aec4   24 5e                                                
aec6: 50 08     -         bvc $aed0                    //  aec6   50 08                                                  
aec8: 68        -         pla                          //  aec8   68                                               
aec9: 18        -         clc                          //  aec9   18                                               
aeca: 69 01     -         adc #$01                     //  aeca   69 01                                                  
aecc: aa        -         tax                          //  aecc   aa                                               
aecd: 68        -         pla                          //  aecd   68                                               
aece: 69 00     -         adc #$00                     //  aece   69 00                                                  
aed0: c8        - laed0:  iny                          //  aed0   c8                                               
aed1: 91 aa     -         sta ($aa),y                   //  aed1   91 aa                                                   
aed3: c8        -         iny                          //  aed3   c8                                               
aed4: 8a        -         txa                          //  aed4   8a                                               
aed5: 91 aa     -         sta ($aa),y                   //  aed5   91 aa                                                   
aed7: 20 7c af  -         jsr $af7c                    //  aed7   20 7c af                                               
aeda: 86 ba     -         stx $ba                      //  aeda   86 ba                                                
aedc: 85 bb     -         sta $bb                      //  aedc   85 bb                                                
aede: a4 71     -         ldy $71                      //  aede   a4 71                                                
aee0: c6 5d     -         dec $5d                      //  aee0   c6 5d                                                
aee2: d0 dc     -         bne $aec0                    //  aee2   d0 dc                                                  
aee4: 65 a5     -         adc $a5                      //  aee4   65 a5                                                
aee6: b0 5d     -         bcs $af45                    //  aee6   b0 5d                                                  
aee8: 85 a5     -         sta $a5                      //  aee8   85 a5                                                
aeea: a8        -         tay                          //  aeea   a8                                               
aeeb: 8a        -         txa                          //  aeeb   8a                                               
aeec: 65 a4     -         adc $a4                      //  aeec   65 a4                                                
aeee: 90 03     -         bcc $aef3                    //  aeee   90 03                                                  
aef0: c8        -         iny                          //  aef0   c8                                               
aef1: f0 52     -         beq $af45                    //  aef1   f0 52                                                  
aef3: 20 1f a2  - laef3:  jsr $a21f                    //  aef3   20 1f a2                                               
aef6: 85 7f     -         sta $7f                      //  aef6   85 7f                                                
aef8: 84 80     -         sty $80                      //  aef8   84 80                                                
aefa: a9 00     -         lda #$00                     //  aefa   a9 00                                                  
aefc: e6 bb     -         inc $bb                      //  aefc   e6 bb                                                
aefe: a4 ba     -         ldy $ba                      //  aefe   a4 ba                                                
af00: f0 05     -         beq $af07                    //  af00   f0 05                                                  
af02: 88        - laf02:  dey                          //  af02   88                                               
af03: 91 a4     -         sta ($a4),y                   //  af03   91 a4                                                   
af05: d0 fb     -         bne $af02                    //  af05   d0 fb                                                  
af07: c6 a5     - laf07:  dec $a5                      //  af07   c6 a5                                                
af09: c6 bb     -         dec $bb                      //  af09   c6 bb                                                
af0b: d0 f5     -         bne $af02                    //  af0b   d0 f5                                                  
af0d: e6 a5     -         inc $a5                      //  af0d   e6 a5                                                
af0f: 38        -         sec                          //  af0f   38                                               
af10: a5 7f     -         lda $7f                      //  af10   a5 7f                                                
af12: e5 aa     -         sbc $aa                      //  af12   e5 aa                                                
af14: a0 02     -         ldy #$02                     //  af14   a0 02                                                  
af16: 91 aa     -         sta ($aa),y                   //  af16   91 aa                                                   
af18: a5 80     -         lda $80                      //  af18   a5 80                                                
af1a: c8        -         iny                          //  af1a   c8                                               
af1b: e5 ab     -         sbc $ab                      //  af1b   e5 ab                                                
af1d: 91 aa     -         sta ($aa),y                   //  af1d   91 aa                                                   
af1f: a5 5e     -         lda $5e                      //  af1f   a5 5e                                                
af21: d0 58     -         bne $af7b                    //  af21   d0 58                                                  
af23: c8        -         iny                          //  af23   c8                                               
af24: b1 aa     - FIND_ARRAY_ELEMENT:lda ($aa),y                   //  af24   b1 aa                                                   
af26: 85 5d     -         sta $5d                      //  af26   85 5d                                                
af28: a9 00     -         lda #$00                     //  af28   a9 00                                                  
af2a: 85 ba     -         sta $ba                      //  af2a   85 ba                                                
af2c: 85 bb     - laf2c:  sta $bb                      //  af2c   85 bb                                                
af2e: c8        -         iny                          //  af2e   c8                                               
af2f: 68        -         pla                          //  af2f   68                                               
af30: aa        -         tax                          //  af30   aa                                               
af31: 85 ae     -         sta $ae                      //  af31   85 ae                                                
af33: 68        -         pla                          //  af33   68                                               
af34: 85 af     -         sta $af                      //  af34   85 af                                                
af36: d1 aa     -         cmp ($aa),y                   //  af36   d1 aa                                                   
af38: 90 0e     -         bcc $af48                    //  af38   90 0e                                                  
af3a: d0 06     -         bne $af42                    //  af3a   d0 06                                                  
af3c: c8        -         iny                          //  af3c   c8                                               
af3d: 8a        -         txa                          //  af3d   8a                                               
af3e: d1 aa     -         cmp ($aa),y                   //  af3e   d1 aa                                                   
af40: 90 07     -         bcc $af49                    //  af40   90 07                                                  
af42: 4c 85 ae  - GSE:    jmp $ae85                    //  af42   4c 85 ae                                               
af45: 4c 4c a2  - GME:    jmp $a24c                    //  af45   4c 4c a2                                               
af48: c8        - FAE2:   iny                          //  af48   c8                                               
af49: a5 bb     - FAE3:   lda $bb                      //  af49   a5 bb                                                
af4b: 05 ba     -         ora $ba                      //  af4b   05 ba                                                
af4d: 18        -         clc                          //  af4d   18                                               
af4e: f0 0a     -         beq $af5a                    //  af4e   f0 0a                                                  
af50: 20 7c af  -         jsr $af7c                    //  af50   20 7c af                                               
af53: 8a        -         txa                          //  af53   8a                                               
af54: 65 ae     -         adc $ae                      //  af54   65 ae                                                
af56: aa        -         tax                          //  af56   aa                                               
af57: 98        -         tya                          //  af57   98                                               
af58: a4 71     -         ldy $71                      //  af58   a4 71                                                
af5a: 65 af     - laf5a:  adc $af                      //  af5a   65 af                                                
af5c: 86 ba     -         stx $ba                      //  af5c   86 ba                                                
af5e: c6 5d     -         dec $5d                      //  af5e   c6 5d                                                
af60: d0 ca     -         bne $af2c                    //  af60   d0 ca                                                  
af62: 06 ba     -         asl $ba                      //  af62   06 ba                                                
af64: 2a        -         rol                          //  af64   2a                                                 
af65: b0 db     -         bcs $af42                    //  af65   b0 db                                                  
af67: 06 ba     -         asl $ba                      //  af67   06 ba                                                
af69: 2a        -         rol                          //  af69   2a                                                 
af6a: b0 d6     -         bcs $af42                    //  af6a   b0 d6                                                  
af6c: a8        -         tay                          //  af6c   a8                                               
af6d: a5 ba     -         lda $ba                      //  af6d   a5 ba                                                
af6f: 65 a4     -         adc $a4                      //  af6f   65 a4                                                
af71: 85 95     -         sta $95                      //  af71   85 95                                                
af73: 98        -         tya                          //  af73   98                                               
af74: 65 a5     -         adc $a5                      //  af74   65 a5                                                
af76: 85 96     -         sta $96                      //  af76   85 96                                                
af78: a8        -         tay                          //  af78   a8                                               
af79: a5 95     -         lda $95                      //  af79   a5 95                                                
af7b: 60        - RTS9:   rts                          //  af7b   60                                               
af7c: 84 71     - MULTIPLY_SUBSCRIPT:sty $71                      //  af7c   84 71                                                
af7e: b1 aa     -         lda ($aa),y                   //  af7e   b1 aa                                                   
af80: 85 76     -         sta $76                      //  af80   85 76                                                
af82: 88        -         dey                          //  af82   88                                               
af83: b1 aa     -         lda ($aa),y                   //  af83   b1 aa                                                   
af85: 85 77     -         sta $77                      //  af85   85 77                                                
af87: a9 10     -         lda #$10                     //  af87   a9 10                                                  
af89: 85 a8     -         sta $a8                      //  af89   85 a8                                                
af8b: a2 00     -         ldx #$00                     //  af8b   a2 00                                                  
af8d: a0 00     -         ldy #$00                     //  af8d   a0 00                                                  
af8f: 8a        - laf8f:  txa                          //  af8f   8a                                               
af90: 0a        -         asl                          //  af90   0a                                                 
af91: aa        -         tax                          //  af91   aa                                               
af92: 98        -         tya                          //  af92   98                                               
af93: 2a        -         rol                          //  af93   2a                                                 
af94: a8        -         tay                          //  af94   a8                                               
af95: b0 ae     -         bcs $af45                    //  af95   b0 ae                                                  
af97: 06 ba     -         asl $ba                      //  af97   06 ba                                                
af99: 26 bb     -         rol $bb                      //  af99   26 bb                                                
af9b: 90 0b     -         bcc $afa8                    //  af9b   90 0b                                                  
af9d: 18        -         clc                          //  af9d   18                                               
af9e: 8a        -         txa                          //  af9e   8a                                               
af9f: 65 76     -         adc $76                      //  af9f   65 76                                                
afa1: aa        -         tax                          //  afa1   aa                                               
afa2: 98        -         tya                          //  afa2   98                                               
afa3: 65 77     -         adc $77                      //  afa3   65 77                                                
afa5: a8        -         tay                          //  afa5   a8                                               
afa6: b0 9d     -         bcs $af45                    //  afa6   b0 9d                                                  
afa8: c6 a8     - lafa8:  dec $a8                      //  afa8   c6 a8                                                
afaa: d0 e3     -         bne $af8f                    //  afaa   d0 e3                                                  
afac: 60        -         rts                          //  afac   60                                               
afad: a5 5f     - FRE:    lda $5f                      //  afad   a5 5f                                                
afaf: f0 03     -         beq $afb4                    //  afaf   f0 03                                                  
afb1: 20 b6 b2  -         jsr $b2b6                    //  afb1   20 b6 b2                                               
afb4: 20 47 b1  - lafb4:  jsr $b147                    //  afb4   20 47 b1                                               
afb7: 38        -         sec                          //  afb7   38                                               
afb8: a5 81     -         lda $81                      //  afb8   a5 81                                                
afba: e5 7f     -         sbc $7f                      //  afba   e5 7f                                                
afbc: a8        -         tay                          //  afbc   a8                                               
afbd: a5 82     -         lda $82                      //  afbd   a5 82                                                
afbf: e5 80     -         sbc $80                      //  afbf   e5 80                                                
afc1: a2 00     - GIVAYF: ldx #$00                     //  afc1   a2 00                                                  
afc3: 86 5f     -         stx $5f                      //  afc3   86 5f                                                
afc5: 85 ad     -         sta $ad                      //  afc5   85 ad                                                
afc7: 84 ae     -         sty $ae                      //  afc7   84 ae                                                
afc9: a2 90     -         ldx #$90                     //  afc9   a2 90                                                  
afcb: 4c e3 b7  -         jmp $b7e3                    //  afcb   4c e3 b7                                               
afce: a4 0e     - POS:    ldy $0e                      //  afce   a4 0e                                                
afd0: a9 00     - SNGFLT: lda #$00                     //  afd0   a9 00                                                  
afd2: f0 ed     -         beq $afc1                    //  afd2   f0 ed                                                  
afd4: a6 88     - ERRDIR: ldx $88                      //  afd4   a6 88                                                
afd6: e8        -         inx                          //  afd6   e8                                               
afd7: d0 a2     -         bne $af7b                    //  afd7   d0 a2                                                  
afd9: a2 16     -         ldx #$16                     //  afd9   a2 16                                                  
afdb: 4c 4e a2  - lafdb:  jmp $a24e                    //  afdb   4c 4e a2                                               
afde: 20 0b b0  - DEF:    jsr $b00b                    //  afde   20 0b b0                                               
afe1: 20 d4 af  -         jsr $afd4                    //  afe1   20 d4 af                                               
afe4: 20 fe ab  -         jsr $abfe                    //  afe4   20 fe ab                                               
afe7: a9 80     -         lda #$80                     //  afe7   a9 80                                                  
afe9: 85 61     -         sta $61                      //  afe9   85 61                                                
afeb: 20 0b ad  -         jsr $ad0b                    //  afeb   20 0b ad                                               
afee: 20 b0 aa  -         jsr $aab0                    //  afee   20 b0 aa                                               
aff1: 20 fb ab  -         jsr $abfb                    //  aff1   20 fb ab                                               
aff4: a9 ab     -         lda #$ab                     //  aff4   a9 ab                                                  
aff6: 20 03 ac  -         jsr $ac03                    //  aff6   20 03 ac                                               
aff9: a5 96     -         lda $96                      //  aff9   a5 96                                                
affb: 48        -         pha                          //  affb   48                                               
affc: a5 95     -         lda $95                      //  affc   a5 95                                                
affe: 48        -         pha                          //  affe   48                                               
afff: a5 c4     -         lda.zp $c4                      //  afff   a5 c4                                                
b001: 48        -         pha                          //  b001   48                                               
b002: a5 c3     -         lda.zp $c3                      //  b002   a5 c3                                                
b004: 48        -         pha                          //  b004   48                                               
b005: 20 0c a7  -         jsr $a70c                    //  b005   20 0c a7                                               
b008: 4c 7a b0  -         jmp $b07a                    //  b008   4c 7a b0                                               
b00b: a9 9e     - FNC:    lda #$9e                     //  b00b   a9 9e                                                  
b00d: 20 03 ac  -         jsr $ac03                    //  b00d   20 03 ac                                               
b010: 09 80     -         ora #$80                     //  b010   09 80                                                  
b012: 85 61     -         sta $61                      //  b012   85 61                                                
b014: 20 12 ad  -         jsr $ad12                    //  b014   20 12 ad                                               
b017: 85 9c     -         sta $9c                      //  b017   85 9c                                                
b019: 84 9d     -         sty $9d                      //  b019   84 9d                                                
b01b: 4c b0 aa  -         jmp $aab0                    //  b01b   4c b0 aa                                               
b01e: 20 0b b0  - lb01e:  jsr $b00b                    //  b01e   20 0b b0                                               
b021: a5 9d     -         lda $9d                      //  b021   a5 9d                                                
b023: 48        -         pha                          //  b023   48                                               
b024: a5 9c     -         lda $9c                      //  b024   a5 9c                                                
b026: 48        -         pha                          //  b026   48                                               
b027: 20 f5 ab  -         jsr $abf5                    //  b027   20 f5 ab                                               
b02a: 20 b0 aa  -         jsr $aab0                    //  b02a   20 b0 aa                                               
b02d: 68        -         pla                          //  b02d   68                                               
b02e: 85 9c     -         sta $9c                      //  b02e   85 9c                                                
b030: 68        -         pla                          //  b030   68                                               
b031: 85 9d     -         sta $9d                      //  b031   85 9d                                                
b033: a0 02     -         ldy #$02                     //  b033   a0 02                                                  
b035: a2 20     -         ldx #$20                     //  b035   a2 20                                                  
b037: b1 9c     -         lda ($9c),y                   //  b037   b1 9c                                                   
b039: f0 a0     -         beq $afdb                    //  b039   f0 a0                                                  
b03b: 85 95     -         sta $95                      //  b03b   85 95                                                
b03d: aa        -         tax                          //  b03d   aa                                               
b03e: c8        -         iny                          //  b03e   c8                                               
b03f: b1 9c     -         lda ($9c),y                   //  b03f   b1 9c                                                   
b041: 85 96     -         sta $96                      //  b041   85 96                                                
b043: b1 95     - lb043:  lda ($95),y                   //  b043   b1 95                                                   
b045: 48        -         pha                          //  b045   48                                               
b046: 88        -         dey                          //  b046   88                                               
b047: 10 fa     -         bpl $b043                    //  b047   10 fa                                                  
b049: a4 96     -         ldy $96                      //  b049   a4 96                                                
b04b: 20 78 b7  -         jsr STORE_FAC_AT_YX_ROUNDED                    //  b04b   20 78 b7                                               
b04e: a5 c4     -         lda.zp $c4                      //  b04e   a5 c4                                                
b050: 48        -         pha                          //  b050   48                                               
b051: a5 c3     -         lda.zp $c3                      //  b051   a5 c3                                                
b053: 48        -         pha                          //  b053   48                                               
b054: b1 9c     -         lda ($9c),y                   //  b054   b1 9c                                                   
b056: 85 c3     -         sta.zp $c3                      //  b056   85 c3                                                
b058: c8        -         iny                          //  b058   c8                                               
b059: b1 9c     -         lda ($9c),y                   //  b059   b1 9c                                                   
b05b: 85 c4     -         sta $c4                      //  b05b   85 c4                                                
b05d: a5 96     -         lda $96                      //  b05d   a5 96                                                
b05f: 48        -         pha                          //  b05f   48                                               
b060: a5 95     -         lda $95                      //  b060   a5 95                                                
b062: 48        -         pha                          //  b062   48                                               
b063: 20 ad aa  -         jsr $aaad                    //  b063   20 ad aa                                               
b066: 68        -         pla                          //  b066   68                                               
b067: 85 9c     -         sta $9c                      //  b067   85 9c                                                
b069: 68        -         pla                          //  b069   68                                               
b06a: 85 9d     -         sta $9d                      //  b06a   85 9d                                                
b06c: 20 c2 00  -         jsr $00c2                    //  b06c   20 c2 00                                               
b06f: f0 03     -         beq $b074                    //  b06f   f0 03                                                  
b071: 4c 0c ac  -         jmp $ac0c                    //  b071   4c 0c ac                                               
b074: 68        - lb074:  pla                          //  b074   68                                               
b075: 85 c3     -         sta.zp $c3                      //  b075   85 c3                                                
b077: 68        -         pla                          //  b077   68                                               
b078: 85 c4     -         sta.zp $c4                      //  b078   85 c4                                                
b07a: a0 00     - lb07a:  ldy #$00                     //  b07a   a0 00                                                  
b07c: 68        -         pla                          //  b07c   68                                               
b07d: 91 9c     -         sta ($9c),y                   //  b07d   91 9c                                                   
b07f: 68        -         pla                          //  b07f   68                                               
b080: c8        -         iny                          //  b080   c8                                               
b081: 91 9c     -         sta ($9c),y                   //  b081   91 9c                                                   
b083: 68        -         pla                          //  b083   68                                               
b084: c8        -         iny                          //  b084   c8                                               
b085: 91 9c     -         sta ($9c),y                   //  b085   91 9c                                                   
b087: 68        -         pla                          //  b087   68                                               
b088: c8        -         iny                          //  b088   c8                                               
b089: 91 9c     -         sta ($9c),y                   //  b089   91 9c                                                   
b08b: 60        -         rts                          //  b08b   60                                               
b08c: 20 b0 aa  - STR:    jsr $aab0                    //  b08c   20 b0 aa                                               
b08f: a0 00     -         ldy #$00                     //  b08f   a0 00                                                  
b091: 20 70 b9  -         jsr $b970                    //  b091   20 70 b9                                               
b094: 68        -         pla                          //  b094   68                                               
b095: 68        -         pla                          //  b095   68                                               
b096: a9 ff     -         lda #$ff                     //  b096   a9 ff                                                  
b098: a0 00     -         ldy #$00                     //  b098   a0 00                                                  
b09a: f0 12     -         beq $b0ae                    //  b09a   f0 12                                                  
b09c: a6 ae     - STRINI: ldx $ae                      //  b09c   a6 ae                                                
b09e: a4 af     -         ldy $af                      //  b09e   a4 af                                                
b0a0: 86 9e     -         stx $9e                      //  b0a0   86 9e                                                
b0a2: 84 9f     -         sty $9f                      //  b0a2   84 9f                                                
b0a4: 20 15 b1  - STRSPA: jsr $b115                    //  b0a4   20 15 b1                                               
b0a7: 86 ad     -         stx $ad                      //  b0a7   86 ad                                                
b0a9: 84 ae     -         sty $ae                      //  b0a9   84 ae                                                
b0ab: 85 ac     -         sta $ac                      //  b0ab   85 ac                                                
b0ad: 60        -         rts                          //  b0ad   60                                               
b0ae: a2 22     - STRLIT: ldx #$22                     //  b0ae   a2 22                                                  
b0b0: 86 5b     -         stx $5b                      //  b0b0   86 5b                                                
b0b2: 86 5c     -         stx $5c                      //  b0b2   86 5c                                                
b0b4: 85 b8     - STRLT2: sta $b8                      //  b0b4   85 b8                                                
b0b6: 84 b9     -         sty $b9                      //  b0b6   84 b9                                                
b0b8: 85 ad     -         sta $ad                      //  b0b8   85 ad                                                
b0ba: 84 ae     -         sty $ae                      //  b0ba   84 ae                                                
b0bc: a0 ff     -         ldy #$ff                     //  b0bc   a0 ff                                                  
b0be: c8        - lb0be:  iny                          //  b0be   c8                                               
b0bf: b1 b8     -         lda ($b8),y                   //  b0bf   b1 b8                                                   
b0c1: f0 0c     -         beq $b0cf                    //  b0c1   f0 0c                                                  
b0c3: c5 5b     -         cmp $5b                      //  b0c3   c5 5b                                                
b0c5: f0 04     -         beq $b0cb                    //  b0c5   f0 04                                                  
b0c7: c5 5c     -         cmp $5c                      //  b0c7   c5 5c                                                
b0c9: d0 f3     -         bne $b0be                    //  b0c9   d0 f3                                                  
b0cb: c9 22     - lb0cb:  cmp #$22                     //  b0cb   c9 22                                                  
b0cd: f0 01     -         beq $b0d0                    //  b0cd   f0 01                                                  
b0cf: 18        - lb0cf:  clc                          //  b0cf   18                                               
b0d0: 84 ac     - lb0d0:  sty $ac                      //  b0d0   84 ac                                                
b0d2: 98        -         tya                          //  b0d2   98                                               
b0d3: 65 b8     -         adc $b8                      //  b0d3   65 b8                                                
b0d5: 85 ba     -         sta $ba                      //  b0d5   85 ba                                                
b0d7: a6 b9     -         ldx $b9                      //  b0d7   a6 b9                                                
b0d9: 90 01     -         bcc $b0dc                    //  b0d9   90 01                                                  
b0db: e8        -         inx                          //  b0db   e8                                               
b0dc: 86 bb     - lb0dc:  stx $bb                      //  b0dc   86 bb                                                
b0de: a5 b9     -         lda $b9                      //  b0de   a5 b9                                                
b0e0: d0 0b     -         bne $b0ed                    //  b0e0   d0 0b                                                  
b0e2: 98        -         tya                          //  b0e2   98                                               
b0e3: 20 9c b0  -         jsr $b09c                    //  b0e3   20 9c b0                                               
b0e6: a6 b8     -         ldx $b8                      //  b0e6   a6 b8                                                
b0e8: a4 b9     -         ldy $b9                      //  b0e8   a4 b9                                                
b0ea: 20 98 b2  -         jsr $b298                    //  b0ea   20 98 b2                                               
b0ed: a6 65     - PUTNEW: ldx $65                      //  b0ed   a6 65                                                
b0ef: e0 71     -         cpx #$71                     //  b0ef   e0 71                                                  
b0f1: d0 05     -         bne $b0f8                    //  b0f1   d0 05                                                  
b0f3: a2 1c     -         ldx #$1c                     //  b0f3   a2 1c                                                  
b0f5: 4c 4e a2  - JERR:   jmp $a24e                    //  b0f5   4c 4e a2                                               
b0f8: a5 ac     - PUTEMP: lda $ac                      //  b0f8   a5 ac                                                
b0fa: 95 00     -         sta $00,x                    //  b0fa   95 00                                                  
b0fc: a5 ad     -         lda $ad                      //  b0fc   a5 ad                                                
b0fe: 95 01     -         sta $01,x                    //  b0fe   95 01                                                  
b100: a5 ae     -         lda $ae                      //  b100   a5 ae                                                
b102: 95 02     -         sta $02,x                    //  b102   95 02                                                  
b104: a0 00     -         ldy #$00                     //  b104   a0 00                                                  
b106: 86 ae     -         stx $ae                      //  b106   86 ae                                                
b108: 84 af     -         sty $af                      //  b108   84 af                                                
b10a: 88        -         dey                          //  b10a   88                                               
b10b: 84 5f     -         sty $5f                      //  b10b   84 5f                                                
b10d: 86 66     -         stx $66                      //  b10d   86 66                                                
b10f: e8        -         inx                          //  b10f   e8                                               
b110: e8        -         inx                          //  b110   e8                                               
b111: e8        -         inx                          //  b111   e8                                               
b112: 86 65     -         stx $65                      //  b112   86 65                                                
b114: 60        -         rts                          //  b114   60                                               
b115: 46 60     - GETSPA: lsr $60                      //  b115   46 60                                                
b117: 48        - lb117:  pha                          //  b117   48                                               
b118: 49 ff     -         eor #$ff                     //  b118   49 ff                                                  
b11a: 38        -         sec                          //  b11a   38                                               
b11b: 65 81     -         adc $81                      //  b11b   65 81                                                
b11d: a4 82     -         ldy $82                      //  b11d   a4 82                                                
b11f: b0 01     -         bcs $b122                    //  b11f   b0 01                                                  
b121: 88        -         dey                          //  b121   88                                               
b122: c4 80     - lb122:  cpy $80                      //  b122   c4 80                                                
b124: 90 11     -         bcc $b137                    //  b124   90 11                                                  
b126: d0 04     -         bne $b12c                    //  b126   d0 04                                                  
b128: c5 7f     -         cmp $7f                      //  b128   c5 7f                                                
b12a: 90 0b     -         bcc $b137                    //  b12a   90 0b                                                  
b12c: 85 81     - lb12c:  sta $81                      //  b12c   85 81                                                
b12e: 84 82     -         sty $82                      //  b12e   84 82                                                
b130: 85 83     -         sta $83                      //  b130   85 83                                                
b132: 84 84     -         sty $84                      //  b132   84 84                                                
b134: aa        -         tax                          //  b134   aa                                               
b135: 68        -         pla                          //  b135   68                                               
b136: 60        -         rts                          //  b136   60                                               
b137: a2 0c     - lb137:  ldx #$0c                     //  b137   a2 0c                                                  
b139: a5 60     -         lda $60                      //  b139   a5 60                                                
b13b: 30 b8     -         bmi $b0f5                    //  b13b   30 b8                                                  
b13d: 20 47 b1  -         jsr $b147                    //  b13d   20 47 b1                                               
b140: a9 80     -         lda #$80                     //  b140   a9 80                                                  
b142: 85 60     -         sta $60                      //  b142   85 60                                                
b144: 68        -         pla                          //  b144   68                                               
b145: d0 d0     -         bne $b117                    //  b145   d0 d0                                                  
b147: a6 85     - GARBAG: ldx $85                      //  b147   a6 85                                                
b149: a5 86     -         lda $86                      //  b149   a5 86                                                
b14b: 86 81     - FINDHIGHESTSTRING:stx $81                      //  b14b   86 81                                                
b14d: 85 82     -         sta $82                      //  b14d   85 82                                                
b14f: a0 00     -         ldy #$00                     //  b14f   a0 00                                                  
b151: 84 9d     -         sty $9d                      //  b151   84 9d                                                
b153: a5 7f     -         lda $7f                      //  b153   a5 7f                                                
b155: a6 80     -         ldx $80                      //  b155   a6 80                                                
b157: 85 aa     -         sta $aa                      //  b157   85 aa                                                
b159: 86 ab     -         stx $ab                      //  b159   86 ab                                                
b15b: a9 68     -         lda #$68                     //  b15b   a9 68                                                  
b15d: 85 71     -         sta $71                      //  b15d   85 71                                                
b15f: 84 72     -         sty $72                      //  b15f   84 72                                                
b161: c5 65     - lb161:  cmp $65                      //  b161   c5 65                                                
b163: f0 05     -         beq $b16a                    //  b163   f0 05                                                  
b165: 20 d7 b1  -         jsr $b1d7                    //  b165   20 d7 b1                                               
b168: f0 f7     -         beq $b161                    //  b168   f0 f7                                                  
b16a: a9 06     - lb16a:  lda #$06                     //  b16a   a9 06                                                  
b16c: 85 a0     -         sta $a0                      //  b16c   85 a0                                                
b16e: a5 7b     -         lda $7b                      //  b16e   a5 7b                                                
b170: a6 7c     -         ldx $7c                      //  b170   a6 7c                                                
b172: 85 71     -         sta $71                      //  b172   85 71                                                
b174: 86 72     -         stx $72                      //  b174   86 72                                                
b176: e4 7e     - lb176:  cpx $7e                      //  b176   e4 7e                                                
b178: d0 04     -         bne $b17e                    //  b178   d0 04                                                  
b17a: c5 7d     -         cmp $7d                      //  b17a   c5 7d                                                
b17c: f0 05     -         beq $b183                    //  b17c   f0 05                                                  
b17e: 20 d1 b1  - lb17e:  jsr $b1d1                    //  b17e   20 d1 b1                                               
b181: f0 f3     -         beq $b176                    //  b181   f0 f3                                                  
b183: 85 a4     - lb183:  sta $a4                      //  b183   85 a4                                                
b185: 86 a5     -         stx $a5                      //  b185   86 a5                                                
b187: a9 04     -         lda #$04                     //  b187   a9 04                                                  
b189: 85 a0     -         sta $a0                      //  b189   85 a0                                                
b18b: a5 a4     - lb18b:  lda $a4                      //  b18b   a5 a4                                                
b18d: a6 a5     -         ldx $a5                      //  b18d   a6 a5                                                
b18f: e4 80     - lb18f:  cpx $80                      //  b18f   e4 80                                                
b191: d0 07     -         bne $b19a                    //  b191   d0 07                                                  
b193: c5 7f     -         cmp $7f                      //  b193   c5 7f                                                
b195: d0 03     -         bne $b19a                    //  b195   d0 03                                                  
b197: 4c 16 b2  -         jmp $b216                    //  b197   4c 16 b2                                               
b19a: 85 71     - lb19a:  sta $71                      //  b19a   85 71                                                
b19c: 86 72     -         stx $72                      //  b19c   86 72                                                
b19e: a0 01     -         ldy #$01                     //  b19e   a0 01                                                  
b1a0: b1 71     -         lda ($71),y                   //  b1a0   b1 71                                                   
b1a2: 08        -         php                          //  b1a2   08                                               
b1a3: c8        -         iny                          //  b1a3   c8                                               
b1a4: b1 71     -         lda ($71),y                   //  b1a4   b1 71                                                   
b1a6: 65 a4     -         adc $a4                      //  b1a6   65 a4                                                
b1a8: 85 a4     -         sta $a4                      //  b1a8   85 a4                                                
b1aa: c8        -         iny                          //  b1aa   c8                                               
b1ab: b1 71     -         lda ($71),y                   //  b1ab   b1 71                                                   
b1ad: 65 a5     -         adc $a5                      //  b1ad   65 a5                                                
b1af: 85 a5     -         sta $a5                      //  b1af   85 a5                                                
b1b1: 28        -         plp                          //  b1b1   28                                               
b1b2: 10 d7     -         bpl $b18b                    //  b1b2   10 d7                                                  
b1b4: c8        -         iny                          //  b1b4   c8                                               
b1b5: b1 71     -         lda ($71),y                   //  b1b5   b1 71                                                   
b1b7: 0a        -         asl                          //  b1b7   0a                                                 
b1b8: 69 05     -         adc #$05                     //  b1b8   69 05                                                  
b1ba: 65 71     -         adc $71                      //  b1ba   65 71                                                
b1bc: 85 71     -         sta $71                      //  b1bc   85 71                                                
b1be: 90 02     -         bcc $b1c2                    //  b1be   90 02                                                  
b1c0: e6 72     -         inc $72                      //  b1c0   e6 72                                                
b1c2: a6 72     - lb1c2:  ldx $72                      //  b1c2   a6 72                                                
b1c4: e4 a5     - lb1c4:  cpx $a5                      //  b1c4   e4 a5                                                
b1c6: d0 04     -         bne $b1cc                    //  b1c6   d0 04                                                  
b1c8: c5 a4     -         cmp $a4                      //  b1c8   c5 a4                                                
b1ca: f0 c3     -         beq $b18f                    //  b1ca   f0 c3                                                  
b1cc: 20 d7 b1  - lb1cc:  jsr $b1d7                    //  b1cc   20 d7 b1                                               
b1cf: f0 f3     -         beq $b1c4                    //  b1cf   f0 f3                                                  
b1d1: c8        - CHECK_SIMPLE_VARIABLE:iny                          //  b1d1   c8                                               
b1d2: b1 71     -         lda ($71),y                   //  b1d2   b1 71                                                   
b1d4: 10 30     -         bpl $b206                    //  b1d4   10 30                                                  
b1d6: c8        -         iny                          //  b1d6   c8                                               
b1d7: b1 71     - CHECK_VARIABLE:lda ($71),y                   //  b1d7   b1 71                                                   
b1d9: f0 2b     -         beq $b206                    //  b1d9   f0 2b                                                  
b1db: c8        -         iny                          //  b1db   c8                                               
b1dc: b1 71     -         lda ($71),y                   //  b1dc   b1 71                                                   
b1de: aa        -         tax                          //  b1de   aa                                               
b1df: c8        -         iny                          //  b1df   c8                                               
b1e0: b1 71     -         lda ($71),y                   //  b1e0   b1 71                                                   
b1e2: c5 82     -         cmp $82                      //  b1e2   c5 82                                                
b1e4: 90 06     -         bcc $b1ec                    //  b1e4   90 06                                                  
b1e6: d0 1e     -         bne $b206                    //  b1e6   d0 1e                                                  
b1e8: e4 81     -         cpx $81                      //  b1e8   e4 81                                                
b1ea: b0 1a     -         bcs $b206                    //  b1ea   b0 1a                                                  
b1ec: c5 ab     - lb1ec:  cmp $ab                      //  b1ec   c5 ab                                                
b1ee: 90 16     -         bcc $b206                    //  b1ee   90 16                                                  
b1f0: d0 04     -         bne $b1f6                    //  b1f0   d0 04                                                  
b1f2: e4 aa     -         cpx $aa                      //  b1f2   e4 aa                                                
b1f4: 90 10     -         bcc $b206                    //  b1f4   90 10                                                  
b1f6: 86 aa     - lb1f6:  stx $aa                      //  b1f6   86 aa                                                
b1f8: 85 ab     -         sta $ab                      //  b1f8   85 ab                                                
b1fa: a5 71     -         lda $71                      //  b1fa   a5 71                                                
b1fc: a6 72     -         ldx $72                      //  b1fc   a6 72                                                
b1fe: 85 9c     -         sta $9c                      //  b1fe   85 9c                                                
b200: 86 9d     -         stx $9d                      //  b200   86 9d                                                
b202: 88        -         dey                          //  b202   88                                               
b203: 88        -         dey                          //  b203   88                                               
b204: 84 a2     -         sty $a2                      //  b204   84 a2                                                
b206: a5 a0     - CHECK_BUMP:lda $a0                      //  b206   a5 a0                                                
b208: 18        -         clc                          //  b208   18                                               
b209: 65 71     -         adc $71                      //  b209   65 71                                                
b20b: 85 71     -         sta $71                      //  b20b   85 71                                                
b20d: 90 02     -         bcc $b211                    //  b20d   90 02                                                  
b20f: e6 72     -         inc $72                      //  b20f   e6 72                                                
b211: a6 72     - lb211:  ldx $72                      //  b211   a6 72                                                
b213: a0 00     -         ldy #$00                     //  b213   a0 00                                                  
b215: 60        -         rts                          //  b215   60                                               
b216: c6 a0     - MOVE_HIGHEST_STRING_TO_TOP:dec $a0                      //  b216   c6 a0                                                
b218: a6 9d     -         ldx $9d                      //  b218   a6 9d                                                
b21a: f0 f5     -         beq $b211                    //  b21a   f0 f5                                                  
b21c: a4 a2     -         ldy $a2                      //  b21c   a4 a2                                                
b21e: 18        -         clc                          //  b21e   18                                               
b21f: b1 9c     -         lda ($9c),y                   //  b21f   b1 9c                                                   
b221: 65 aa     -         adc $aa                      //  b221   65 aa                                                
b223: 85 a6     -         sta $a6                      //  b223   85 a6                                                
b225: a5 ab     -         lda $ab                      //  b225   a5 ab                                                
b227: 69 00     -         adc #$00                     //  b227   69 00                                                  
b229: 85 a7     -         sta $a7                      //  b229   85 a7                                                
b22b: a5 81     -         lda $81                      //  b22b   a5 81                                                
b22d: a6 82     -         ldx $82                      //  b22d   a6 82                                                
b22f: 85 a4     -         sta $a4                      //  b22f   85 a4                                                
b231: 86 a5     -         stx $a5                      //  b231   86 a5                                                
b233: 20 d6 a1  -         jsr $a1d6                    //  b233   20 d6 a1                                               
b236: a4 a2     -         ldy $a2                      //  b236   a4 a2                                                
b238: c8        -         iny                          //  b238   c8                                               
b239: a5 a4     -         lda $a4                      //  b239   a5 a4                                                
b23b: 91 9c     -         sta ($9c),y                   //  b23b   91 9c                                                   
b23d: aa        -         tax                          //  b23d   aa                                               
b23e: e6 a5     -         inc $a5                      //  b23e   e6 a5                                                
b240: a5 a5     -         lda $a5                      //  b240   a5 a5                                                
b242: c8        -         iny                          //  b242   c8                                               
b243: 91 9c     -         sta ($9c),y                   //  b243   91 9c                                                   
b245: 4c 4b b1  -         jmp $b14b                    //  b245   4c 4b b1                                               
b248: 53        -         .byte $53                    //  b248   53         %01010011 'S'                                                     
b249: 54        -         .byte $54                    //  b249   54         %01010100 'T'                                                     
b24a: 49 42     -         .byte $49, $42                     //  b24a   49 42                                                  
b24c: 4f        -         .byte $4f                    //  b24c   4f         %01001111 'O'                                                     
b24d: a5 af     - CAT:    lda $af                      //  b24d   a5 af                                                
b24f: 48        -         pha                          //  b24f   48                                               
b250: a5 ae     -         lda $ae                      //  b250   a5 ae                                                
b252: 48        -         pha                          //  b252   48                                               
b253: 20 a0 ab  -         jsr $aba0                    //  b253   20 a0 ab                                               
b256: 20 b2 aa  -         jsr $aab2                    //  b256   20 b2 aa                                               
b259: 68        -         pla                          //  b259   68                                               
b25a: 85 b8     -         sta $b8                      //  b25a   85 b8                                                
b25c: 68        -         pla                          //  b25c   68                                               
b25d: 85 b9     -         sta $b9                      //  b25d   85 b9                                                
b25f: a0 00     -         ldy #$00                     //  b25f   a0 00                                                  
b261: b1 b8     -         lda ($b8),y                   //  b261   b1 b8                                                   
b263: 18        -         clc                          //  b263   18                                               
b264: 71 ae     -         adc ($ae),y                   //  b264   71 ae                                                   
b266: 90 05     -         bcc $b26d                    //  b266   90 05                                                  
b268: a2 1a     -         ldx #$1a                     //  b268   a2 1a                                                  
b26a: 4c 4e a2  -         jmp $a24e                    //  b26a   4c 4e a2                                               
b26d: 20 9c b0  - lb26d:  jsr $b09c                    //  b26d   20 9c b0                                               
b270: 20 8a b2  -         jsr $b28a                    //  b270   20 8a b2                                               
b273: a5 9e     -         lda $9e                      //  b273   a5 9e                                                
b275: a4 9f     -         ldy $9f                      //  b275   a4 9f                                                
b277: 20 ba b2  -         jsr $b2ba                    //  b277   20 ba b2                                               
b27a: 20 9c b2  -         jsr $b29c                    //  b27a   20 9c b2                                               
b27d: a5 b8     -         lda $b8                      //  b27d   a5 b8                                                
b27f: a4 b9     -         ldy $b9                      //  b27f   a4 b9                                                
b281: 20 ba b2  -         jsr $b2ba                    //  b281   20 ba b2                                               
b284: 20 ed b0  -         jsr $b0ed                    //  b284   20 ed b0                                               
b287: 4c db aa  -         jmp $aadb                    //  b287   4c db aa                                               
b28a: a0 00     - MOVINS: ldy #$00                     //  b28a   a0 00                                                  
b28c: b1 b8     -         lda ($b8),y                   //  b28c   b1 b8                                                   
b28e: 48        -         pha                          //  b28e   48                                               
b28f: c8        -         iny                          //  b28f   c8                                               
b290: b1 b8     -         lda ($b8),y                   //  b290   b1 b8                                                   
b292: aa        -         tax                          //  b292   aa                                               
b293: c8        -         iny                          //  b293   c8                                               
b294: b1 b8     -         lda ($b8),y                   //  b294   b1 b8                                                   
b296: a8        -         tay                          //  b296   a8                                               
b297: 68        -         pla                          //  b297   68                                               
b298: 86 71     - MOVSTR: stx $71                      //  b298   86 71                                                
b29a: 84 72     -         sty $72                      //  b29a   84 72                                                
b29c: a8        - MOVSTR1:tay                          //  b29c   a8                                               
b29d: f0 0a     -         beq $b2a9                    //  b29d   f0 0a                                                  
b29f: 48        -         pha                          //  b29f   48                                               
b2a0: 88        - lb2a0:  dey                          //  b2a0   88                                               
b2a1: b1 71     -         lda ($71),y                   //  b2a1   b1 71                                                   
b2a3: 91 83     -         sta ($83),y                   //  b2a3   91 83                                                   
b2a5: 98        -         tya                          //  b2a5   98                                               
b2a6: d0 f8     -         bne $b2a0                    //  b2a6   d0 f8                                                  
b2a8: 68        -         pla                          //  b2a8   68                                               
b2a9: 18        - lb2a9:  clc                          //  b2a9   18                                               
b2aa: 65 83     -         adc $83                      //  b2aa   65 83                                                
b2ac: 85 83     -         sta $83                      //  b2ac   85 83                                                
b2ae: 90 02     -         bcc $b2b2                    //  b2ae   90 02                                                  
b2b0: e6 84     -         inc $84                      //  b2b0   e6 84                                                
b2b2: 60        - lb2b2:  rts                          //  b2b2   60                                               
b2b3: 20 b2 aa  - FRESTR: jsr $aab2                    //  b2b3   20 b2 aa                                               
b2b6: a5 ae     - FREFAC: lda $ae                      //  b2b6   a5 ae                                                
b2b8: a4 af     -         ldy $af                      //  b2b8   a4 af                                                
b2ba: 85 71     - FRETMP: sta $71                      //  b2ba   85 71                                                
b2bc: 84 72     -         sty $72                      //  b2bc   84 72                                                
b2be: 20 eb b2  -         jsr $b2eb                    //  b2be   20 eb b2                                               
b2c1: 08        -         php                          //  b2c1   08                                               
b2c2: a0 00     -         ldy #$00                     //  b2c2   a0 00                                                  
b2c4: b1 71     -         lda ($71),y                   //  b2c4   b1 71                                                   
b2c6: 48        -         pha                          //  b2c6   48                                               
b2c7: c8        -         iny                          //  b2c7   c8                                               
b2c8: b1 71     -         lda ($71),y                   //  b2c8   b1 71                                                   
b2ca: aa        -         tax                          //  b2ca   aa                                               
b2cb: c8        -         iny                          //  b2cb   c8                                               
b2cc: b1 71     -         lda ($71),y                   //  b2cc   b1 71                                                   
b2ce: a8        -         tay                          //  b2ce   a8                                               
b2cf: 68        -         pla                          //  b2cf   68                                               
b2d0: 28        -         plp                          //  b2d0   28                                               
b2d1: d0 13     -         bne $b2e6                    //  b2d1   d0 13                                                  
b2d3: c4 82     -         cpy $82                      //  b2d3   c4 82                                                
b2d5: d0 0f     -         bne $b2e6                    //  b2d5   d0 0f                                                  
b2d7: e4 81     -         cpx $81                      //  b2d7   e4 81                                                
b2d9: d0 0b     -         bne $b2e6                    //  b2d9   d0 0b                                                  
b2db: 48        -         pha                          //  b2db   48                                               
b2dc: 18        -         clc                          //  b2dc   18                                               
b2dd: 65 81     -         adc $81                      //  b2dd   65 81                                                
b2df: 85 81     -         sta $81                      //  b2df   85 81                                                
b2e1: 90 02     -         bcc $b2e5                    //  b2e1   90 02                                                  
b2e3: e6 82     -         inc $82                      //  b2e3   e6 82                                                
b2e5: 68        - lb2e5:  pla                          //  b2e5   68                                               
b2e6: 86 71     - lb2e6:  stx $71                      //  b2e6   86 71                                                
b2e8: 84 72     -         sty $72                      //  b2e8   84 72                                                
b2ea: 60        -         rts                          //  b2ea   60                                               
b2eb: c4 67     - FRETMS: cpy $67                      //  b2eb   c4 67                                                
b2ed: d0 0c     -         bne $b2fb                    //  b2ed   d0 0c                                                  
b2ef: c5 66     -         cmp $66                      //  b2ef   c5 66                                                
b2f1: d0 08     -         bne $b2fb                    //  b2f1   d0 08                                                  
b2f3: 85 65     -         sta $65                      //  b2f3   85 65                                                
b2f5: e9 03     -         sbc #$03                     //  b2f5   e9 03                                                  
b2f7: 85 66     -         sta $66                      //  b2f7   85 66                                                
b2f9: a0 00     -         ldy #$00                     //  b2f9   a0 00                                                  
b2fb: 60        - lb2fb:  rts                          //  b2fb   60                                               
b2fc: 20 b1 b3  - CHRSTR: jsr $b3b1                    //  b2fc   20 b1 b3                                               
b2ff: 8a        -         txa                          //  b2ff   8a                                               
b300: 48        -         pha                          //  b300   48                                               
b301: a9 01     -         lda #$01                     //  b301   a9 01                                                  
b303: 20 a4 b0  -         jsr $b0a4                    //  b303   20 a4 b0                                               
b306: 68        -         pla                          //  b306   68                                               
b307: a0 00     -         ldy #$00                     //  b307   a0 00                                                  
b309: 91 ad     -         sta ($ad),y                   //  b309   91 ad                                                   
b30b: 68        -         pla                          //  b30b   68                                               
b30c: 68        -         pla                          //  b30c   68                                               
b30d: 4c ed b0  -         jmp $b0ed                    //  b30d   4c ed b0                                               
b310: 20 6f b3  - LEFTSTR:jsr $b36f                    //  b310   20 6f b3                                               
b313: d1 9e     -         cmp ($9e),y                   //  b313   d1 9e                                                   
b315: 98        -         tya                          //  b315   98                                               
b316: 90 04     - SUBSTRING1:bcc $b31c                    //  b316   90 04                                                  
b318: b1 9e     -         lda ($9e),y                   //  b318   b1 9e                                                   
b31a: aa        -         tax                          //  b31a   aa                                               
b31b: 98        -         tya                          //  b31b   98                                               
b31c: 48        - lb31c:  pha                          //  b31c   48                                               
b31d: 8a        - SUBSTRING2:txa                          //  b31d   8a                                               
b31e: 48        - SUBSTRING3:pha                          //  b31e   48                                               
b31f: 20 a4 b0  -         jsr $b0a4                    //  b31f   20 a4 b0                                               
b322: a5 9e     -         lda $9e                      //  b322   a5 9e                                                
b324: a4 9f     -         ldy $9f                      //  b324   a4 9f                                                
b326: 20 ba b2  -         jsr $b2ba                    //  b326   20 ba b2                                               
b329: 68        -         pla                          //  b329   68                                               
b32a: a8        -         tay                          //  b32a   a8                                               
b32b: 68        -         pla                          //  b32b   68                                               
b32c: 18        -         clc                          //  b32c   18                                               
b32d: 65 71     -         adc $71                      //  b32d   65 71                                                
b32f: 85 71     -         sta $71                      //  b32f   85 71                                                
b331: 90 02     -         bcc $b335                    //  b331   90 02                                                  
b333: e6 72     -         inc $72                      //  b333   e6 72                                                
b335: 98        - lb335:  tya                          //  b335   98                                               
b336: 20 9c b2  -         jsr $b29c                    //  b336   20 9c b2                                               
b339: 4c ed b0  -         jmp $b0ed                    //  b339   4c ed b0                                               
b33c: 20 6f b3  - RIGHTSTR:jsr $b36f                    //  b33c   20 6f b3                                               
b33f: 18        -         clc                          //  b33f   18                                               
b340: f1 9e     -         sbc ($9e),y                   //  b340   f1 9e                                                   
b342: 49 ff     -         eor #$ff                     //  b342   49 ff                                                  
b344: 4c 16 b3  -         jmp $b316                    //  b344   4c 16 b3                                               
b347: a9 ff     - MIDSTR: lda #$ff                     //  b347   a9 ff                                                  
b349: 85 af     -         sta $af                      //  b349   85 af                                                
b34b: 20 c2 00  -         jsr $00c2                    //  b34b   20 c2 00                                               
b34e: c9 29     -         cmp #$29                     //  b34e   c9 29                                                  
b350: f0 06     -         beq $b358                    //  b350   f0 06                                                  
b352: 20 01 ac  -         jsr $ac01                    //  b352   20 01 ac                                               
b355: 20 ae b3  -         jsr $b3ae                    //  b355   20 ae b3                                               
b358: 20 6f b3  - lb358:  jsr $b36f                    //  b358   20 6f b3                                               
b35b: ca        -         dex                          //  b35b   ca                                               
b35c: 8a        -         txa                          //  b35c   8a                                               
b35d: 48        -         pha                          //  b35d   48                                               
b35e: 18        -         clc                          //  b35e   18                                               
b35f: a2 00     -         ldx #$00                     //  b35f   a2 00                                                  
b361: f1 9e     -         sbc ($9e),y                   //  b361   f1 9e                                                   
b363: b0 b8     -         bcs $b31d                    //  b363   b0 b8                                                  
b365: 49 ff     -         eor #$ff                     //  b365   49 ff                                                  
b367: c5 af     -         cmp $af                      //  b367   c5 af                                                
b369: 90 b3     -         bcc $b31e                    //  b369   90 b3                                                  
b36b: a5 af     -         lda $af                      //  b36b   a5 af                                                
b36d: b0 af     -         bcs $b31e                    //  b36d   b0 af                                                  
b36f: 20 fb ab  - lb36f,SUBSTRING_SETUP:jsr $abfb                    //  b36f   20 fb ab                                               
b372: 68        -         pla                          //  b372   68                                               
b373: 85 a2     -         sta $a2                      //  b373   85 a2                                                
b375: 68        -         pla                          //  b375   68                                               
b376: 85 a3     -         sta $a3                      //  b376   85 a3                                                
b378: 68        -         pla                          //  b378   68                                               
b379: 68        -         pla                          //  b379   68                                               
b37a: 68        -         pla                          //  b37a   68                                               
b37b: aa        -         tax                          //  b37b   aa                                               
b37c: 68        -         pla                          //  b37c   68                                               
b37d: 85 9e     -         sta $9e                      //  b37d   85 9e                                                
b37f: 68        -         pla                          //  b37f   68                                               
b380: 85 9f     -         sta $9f                      //  b380   85 9f                                                
b382: a0 00     -         ldy #$00                     //  b382   a0 00                                                  
b384: 8a        -         txa                          //  b384   8a                                               
b385: f0 21     -         beq $b3a8                    //  b385   f0 21                                                  
b387: e6 a2     -         inc $a2                      //  b387   e6 a2                                                
b389: 6c a2 00  -         jmp ($00a2)                   //  b389   6c a2 00                                                 
b38c: 20 92 b3  - LEN:    jsr $b392                    //  b38c   20 92 b3                                               
b38f: 4c d0 af  - SNGFLT1:jmp $afd0                    //  b38f   4c d0 af                                               
b392: 20 b3 b2  - GETSTR: jsr $b2b3                    //  b392   20 b3 b2                                               
b395: a2 00     -         ldx #$00                     //  b395   a2 00                                                  
b397: 86 5f     -         stx $5f                      //  b397   86 5f                                                
b399: a8        -         tay                          //  b399   a8                                               
b39a: 60        -         rts                          //  b39a   60                                               
b39b: 20 92 b3  - ASC:    jsr $b392                    //  b39b   20 92 b3                                               
b39e: f0 08     -         beq $b3a8                    //  b39e   f0 08                                                  
b3a0: a0 00     -         ldy #$00                     //  b3a0   a0 00                                                  
b3a2: b1 71     -         lda ($71),y                   //  b3a2   b1 71                                                   
b3a4: a8        -         tay                          //  b3a4   a8                                               
b3a5: 4c 8f b3  -         jmp $b38f                    //  b3a5   4c 8f b3                                               
b3a8: 4c 88 ae  - GOIQ:   jmp $ae88                    //  b3a8   4c 88 ae                                               
b3ab: 20 bc 00  - GTBYTC: jsr $00bc                    //  b3ab   20 bc 00                                               
b3ae: 20 ad aa  - GETBYT: jsr $aaad                    //  b3ae   20 ad aa                                               
b3b1: 20 01 ae  - CONINT: jsr $ae01                    //  b3b1   20 01 ae                                               
b3b4: a6 ae     -         ldx $ae                      //  b3b4   a6 ae                                                
b3b6: d0 f0     -         bne $b3a8                    //  b3b6   d0 f0                                                  
b3b8: a6 af     -         ldx $af                      //  b3b8   a6 af                                                
b3ba: 4c c2 00  -         jmp $00c2                    //  b3ba   4c c2 00                                               
b3bd: 20 92 b3  - VAL:    jsr $b392                    //  b3bd   20 92 b3                                               
b3c0: d0 03     -         bne $b3c5                    //  b3c0   d0 03                                                  
b3c2: 4c f1 b4  -         jmp $b4f1                    //  b3c2   4c f1 b4                                               
b3c5: a6 c3     - lb3c5:  ldx.zp $c3                      //  b3c5   a6 c3                                                
b3c7: a4 c4     -         ldy.zp $c4                      //  b3c7   a4 c4                                                
b3c9: 86 ba     -         stx $ba                      //  b3c9   86 ba                                                
b3cb: 84 bb     -         sty $bb                      //  b3cb   84 bb                                                
b3cd: a6 71     -         ldx $71                      //  b3cd   a6 71                                                
b3cf: 86 c3     -         stx.zp $c3                      //  b3cf   86 c3                                                
b3d1: 18        -         clc                          //  b3d1   18                                               
b3d2: 65 71     -         adc $71                      //  b3d2   65 71                                                
b3d4: 85 73     -         sta $73                      //  b3d4   85 73                                                
b3d6: a6 72     -         ldx $72                      //  b3d6   a6 72                                                
b3d8: 86 c4     -         stx.zp $c4                      //  b3d8   86 c4                                                
b3da: 90 01     -         bcc $b3dd                    //  b3da   90 01                                                  
b3dc: e8        -         inx                          //  b3dc   e8                                               
b3dd: 86 74     - lb3dd:  stx $74                      //  b3dd   86 74                                                
b3df: a0 00     -         ldy #$00                     //  b3df   a0 00                                                  
b3e1: b1 73     -         lda ($73),y                   //  b3e1   b1 73                                                   
b3e3: 48        -         pha                          //  b3e3   48                                               
b3e4: a9 00     -         lda #$00                     //  b3e4   a9 00                                                  
b3e6: 91 73     -         sta ($73),y                   //  b3e6   91 73                                                   
b3e8: 20 c2 00  -         jsr $00c2                    //  b3e8   20 c2 00                                               
b3eb: 20 87 b8  -         jsr $b887                    //  b3eb   20 87 b8                                               
b3ee: 68        -         pla                          //  b3ee   68                                               
b3ef: a0 00     -         ldy #$00                     //  b3ef   a0 00                                                  
b3f1: 91 73     -         sta ($73),y                   //  b3f1   91 73                                                   
b3f3: a6 ba     - POINT:  ldx $ba                      //  b3f3   a6 ba                                                
b3f5: a4 bb     -         ldy $bb                      //  b3f5   a4 bb                                                
b3f7: 86 c3     -         stx.zp $c3                      //  b3f7   86 c3                                                
b3f9: 84 c4     -         sty.zp $c4                      //  b3f9   84 c4                                                
b3fb: 60        -         rts                          //  b3fb   60                                               
b3fc: 20 ad aa  - GTNUM:  jsr $aaad                    //  b3fc   20 ad aa                                               
b3ff: 20 08 b4  -         jsr $b408                    //  b3ff   20 08 b4                                               
b402: 20 01 ac  - COMBYTE:jsr $ac01                    //  b402   20 01 ac                                               
b405: 4c ae b3  -         jmp $b3ae                    //  b405   4c ae b3                                               
b408: a5 b0     - GETADR: lda $b0                      //  b408   a5 b0                                                
b40a: 30 9c     -         bmi $b3a8                    //  b40a   30 9c                                                  
b40c: a5 ac     -         lda $ac                      //  b40c   a5 ac                                                
b40e: c9 91     -         cmp #$91                     //  b40e   c9 91                                                  
b410: b0 96     -         bcs $b3a8                    //  b410   b0 96                                                  
b412: 20 31 b8  -         jsr $b831                    //  b412   20 31 b8                                               
b415: a5 ae     -         lda $ae                      //  b415   a5 ae                                                
b417: a4 af     -         ldy $af                      //  b417   a4 af                                                
b419: 84 11     -         sty $11                      //  b419   84 11                                                
b41b: 85 12     -         sta $12                      //  b41b   85 12                                                
b41d: 60        -         rts                          //  b41d   60                                               
b41e: 20 08 b4  - PEEK:   jsr $b408                    //  b41e   20 08 b4                                               
b421: a0 00     -         ldy #$00                     //  b421   a0 00                                                  
b423: b1 11     -         lda ($11),y                   //  b423   b1 11                                                   
b425: a8        -         tay                          //  b425   a8                                               
b426: 4c d0 af  -         jmp $afd0                    //  b426   4c d0 af                                               
b429: 20 fc b3  - POKE:   jsr $b3fc                    //  b429   20 fc b3                                               
b42c: 8a        -         txa                          //  b42c   8a                                               
b42d: a0 00     -         ldy #$00                     //  b42d   a0 00                                                  
b42f: 91 11     -         sta ($11),y                   //  b42f   91 11                                                   
b431: 60        -         rts                          //  b431   60                                               
b432: 20 fc b3  - WAIT:   jsr $b3fc                    //  b432   20 fc b3                                               
b435: 86 97     -         stx $97                      //  b435   86 97                                                
b437: a2 00     -         ldx #$00                     //  b437   a2 00                                                  
b439: 20 c2 00  -         jsr $00c2                    //  b439   20 c2 00                                               
b43c: f0 03     -         beq $b441                    //  b43c   f0 03                                                  
b43e: 20 02 b4  -         jsr $b402                    //  b43e   20 02 b4                                               
b441: 86 98     - lb441:  stx $98                      //  b441   86 98                                                
b443: a0 00     -         ldy #$00                     //  b443   a0 00                                                  
b445: b1 11     - lb445:  lda ($11),y                   //  b445   b1 11                                                   
b447: 45 98     -         eor $98                      //  b447   45 98                                                
b449: 25 97     -         and $97                      //  b449   25 97                                                
b44b: f0 f8     -         beq $b445                    //  b44b   f0 f8                                                  
b44d: 60        - RTS3:   rts                          //  b44d   60                                               
b44e: a9 96     - FADDH:  lda #$96                     //  b44e   a9 96                                                  
b450: a0 ba     -         ldy #$ba                     //  b450   a0 ba                                                  
b452: 4c 6c b4  -         jmp $b46c                    //  b452   4c 6c b4                                               
b455: 20 4d b6  - FSUB:   jsr $b64d                    //  b455   20 4d b6                                               
b458: a5 b0     - FSUBT:  lda $b0                      //  b458   a5 b0                                                
b45a: 49 ff     -         eor #$ff                     //  b45a   49 ff                                                  
b45c: 85 b0     -         sta $b0                      //  b45c   85 b0                                                
b45e: 45 b7     -         eor $b7                      //  b45e   45 b7                                                
b460: 85 b8     -         sta $b8                      //  b460   85 b8                                                
b462: a5 ac     -         lda $ac                      //  b462   a5 ac                                                
b464: 4c 6f b4  -         jmp $b46f                    //  b464   4c 6f b4                                               
b467: 20 7b b5  - FADD1:  jsr $b57b                    //  b467   20 7b b5                                               
b46a: 90 3c     -         bcc $b4a8                    //  b46a   90 3c                                                  
b46c: 20 4d b6  - FADD:   jsr $b64d                    //  b46c   20 4d b6                                               
b46f: d0 03     - FADDT:  bne $b474                    //  b46f   d0 03                                                  
b471: 4c 9b b7  -         jmp $b79b                    //  b471   4c 9b b7                                               
b474: a6 b9     - lb474:  ldx $b9                      //  b474   a6 b9                                                
b476: 86 a3     -         stx $a3                      //  b476   86 a3                                                
b478: a2 b3     -         ldx #$b3                     //  b478   a2 b3                                                  
b47a: a5 b3     -         lda $b3                      //  b47a   a5 b3                                                
b47c: a8        - FADD2:  tay                          //  b47c   a8                                               
b47d: f0 ce     -         beq $b44d                    //  b47d   f0 ce                                                  
b47f: 38        -         sec                          //  b47f   38                                               
b480: e5 ac     -         sbc $ac                      //  b480   e5 ac                                                
b482: f0 24     -         beq $b4a8                    //  b482   f0 24                                                  
b484: 90 12     -         bcc $b498                    //  b484   90 12                                                  
b486: 84 ac     -         sty $ac                      //  b486   84 ac                                                
b488: a4 b7     -         ldy $b7                      //  b488   a4 b7                                                
b48a: 84 b0     -         sty $b0                      //  b48a   84 b0                                                
b48c: 49 ff     -         eor #$ff                     //  b48c   49 ff                                                  
b48e: 69 00     -         adc #$00                     //  b48e   69 00                                                  
b490: a0 00     -         ldy #$00                     //  b490   a0 00                                                  
b492: 84 a3     -         sty $a3                      //  b492   84 a3                                                
b494: a2 ac     -         ldx #$ac                     //  b494   a2 ac                                                  
b496: d0 04     -         bne $b49c                    //  b496   d0 04                                                  
b498: a0 00     - lb498:  ldy #$00                     //  b498   a0 00                                                  
b49a: 84 b9     -         sty $b9                      //  b49a   84 b9                                                
b49c: c9 f9     - lb49c:  cmp #$f9                     //  b49c   c9 f9                                                  
b49e: 30 c7     -         bmi $b467                    //  b49e   30 c7                                                  
b4a0: a8        -         tay                          //  b4a0   a8                                               
b4a1: a5 b9     -         lda $b9                      //  b4a1   a5 b9                                                
b4a3: 56 01     -         lsr $01,x                    //  b4a3   56 01                                                  
b4a5: 20 92 b5  -         jsr $b592                    //  b4a5   20 92 b5                                               
b4a8: 24 b8     - FADD3:  bit $b8                      //  b4a8   24 b8                                                
b4aa: 10 4c     -         bpl $b4f8                    //  b4aa   10 4c                                                  
b4ac: a0 ac     -         ldy #$ac                     //  b4ac   a0 ac                                                  
b4ae: e0 b3     -         cpx #$b3                     //  b4ae   e0 b3                                                  
b4b0: f0 02     -         beq $b4b4                    //  b4b0   f0 02                                                  
b4b2: a0 b3     -         ldy #$b3                     //  b4b2   a0 b3                                                  
b4b4: 38        - lb4b4:  sec                          //  b4b4   38                                               
b4b5: 49 ff     -         eor #$ff                     //  b4b5   49 ff                                                  
b4b7: 65 a3     -         adc $a3                      //  b4b7   65 a3                                                
b4b9: 85 b9     -         sta $b9                      //  b4b9   85 b9                                                
b4bb: b9 03 00  -         lda $0003,y                   //  b4bb   b9 03 00                                                 
b4be: f5 03     -         sbc $03,x                    //  b4be   f5 03                                                  
b4c0: 85 af     -         sta $af                      //  b4c0   85 af                                                
b4c2: b9 02 00  -         lda $0002,y                   //  b4c2   b9 02 00                                                 
b4c5: f5 02     -         sbc $02,x                    //  b4c5   f5 02                                                  
b4c7: 85 ae     -         sta $ae                      //  b4c7   85 ae                                                
b4c9: b9 01 00  -         lda $0001,y                   //  b4c9   b9 01 00                                                 
b4cc: f5 01     -         sbc $01,x                    //  b4cc   f5 01                                                  
b4ce: 85 ad     -         sta $ad                      //  b4ce   85 ad                                                
b4d0: b0 03     - NORMALIZE_FAC1:bcs $b4d5                    //  b4d0   b0 03                                                  
b4d2: 20 37 b5  -         jsr $b537                    //  b4d2   20 37 b5                                               
b4d5: a0 00     - NORMALIZE_FAC2:ldy #$00                     //  b4d5   a0 00                                                  
b4d7: 98        -         tya                          //  b4d7   98                                               
b4d8: 18        -         clc                          //  b4d8   18                                               
b4d9: a6 ad     - lb4d9:  ldx $ad                      //  b4d9   a6 ad                                                
b4db: d0 3e     -         bne $b51b                    //  b4db   d0 3e                                                  
b4dd: a6 ae     -         ldx $ae                      //  b4dd   a6 ae                                                
b4df: 86 ad     -         stx $ad                      //  b4df   86 ad                                                
b4e1: a6 af     -         ldx $af                      //  b4e1   a6 af                                                
b4e3: 86 ae     -         stx $ae                      //  b4e3   86 ae                                                
b4e5: a6 b9     -         ldx $b9                      //  b4e5   a6 b9                                                
b4e7: 86 af     -         stx $af                      //  b4e7   86 af                                                
b4e9: 84 b9     -         sty $b9                      //  b4e9   84 b9                                                
b4eb: 69 08     -         adc #$08                     //  b4eb   69 08                                                  
b4ed: c9 18     -         cmp #$18                     //  b4ed   c9 18                                                  
b4ef: d0 e8     -         bne $b4d9                    //  b4ef   d0 e8                                                  
b4f1: a9 00     - ZERO_FAC:lda #$00                     //  b4f1   a9 00                                                  
b4f3: 85 ac     - STA_IN_FAC_SIGN_AND_EXP:sta $ac                      //  b4f3   85 ac                                                
b4f5: 85 b0     - STA_IN_FAC_SIGN:sta $b0                      //  b4f5   85 b0                                                
b4f7: 60        -         rts                          //  b4f7   60                                               
b4f8: 65 a3     - FADD4:  adc $a3                      //  b4f8   65 a3                                                
b4fa: 85 b9     -         sta $b9                      //  b4fa   85 b9                                                
b4fc: a5 af     -         lda $af                      //  b4fc   a5 af                                                
b4fe: 65 b6     -         adc $b6                      //  b4fe   65 b6                                                
b500: 85 af     -         sta $af                      //  b500   85 af                                                
b502: a5 ae     -         lda $ae                      //  b502   a5 ae                                                
b504: 65 b5     -         adc $b5                      //  b504   65 b5                                                
b506: 85 ae     -         sta $ae                      //  b506   85 ae                                                
b508: a5 ad     -         lda $ad                      //  b508   a5 ad                                                
b50a: 65 b4     -         adc $b4                      //  b50a   65 b4                                                
b50c: 85 ad     -         sta $ad                      //  b50c   85 ad                                                
b50e: 4c 28 b5  -         jmp $b528                    //  b50e   4c 28 b5                                               
b511: 69 01     - NORMALIZE_FAC3:adc #$01                     //  b511   69 01                                                  
b513: 06 b9     -         asl $b9                      //  b513   06 b9                                                
b515: 26 af     -         rol $af                      //  b515   26 af                                                
b517: 26 ae     -         rol $ae                      //  b517   26 ae                                                
b519: 26 ad     -         rol $ad                      //  b519   26 ad                                                
b51b: 10 f4     - NORMALIZE_FAC4:bpl $b511                    //  b51b   10 f4                                                  
b51d: 38        -         sec                          //  b51d   38                                               
b51e: e5 ac     -         sbc $ac                      //  b51e   e5 ac                                                
b520: b0 cf     -         bcs $b4f1                    //  b520   b0 cf                                                  
b522: 49 ff     -         eor #$ff                     //  b522   49 ff                                                  
b524: 69 01     -         adc #$01                     //  b524   69 01                                                  
b526: 85 ac     -         sta $ac                      //  b526   85 ac                                                
b528: 90 0c     - NORMALIZE_FAC5:bcc $b536                    //  b528   90 0c                                                  
b52a: e6 ac     - NORMALIZE_FAC6:inc $ac                      //  b52a   e6 ac                                                
b52c: f0 36     -         beq $b564                    //  b52c   f0 36                                                  
b52e: 66 ad     -         ror $ad                      //  b52e   66 ad                                                
b530: 66 ae     -         ror $ae                      //  b530   66 ae                                                
b532: 66 af     -         ror $af                      //  b532   66 af                                                
b534: 66 b9     -         ror $b9                      //  b534   66 b9                                                
b536: 60        - lb536:  rts                          //  b536   60                                               
b537: a5 b0     - COMPLEMENT_FAC:lda $b0                      //  b537   a5 b0                                                
b539: 49 ff     -         eor #$ff                     //  b539   49 ff                                                  
b53b: 85 b0     -         sta $b0                      //  b53b   85 b0                                                
b53d: a5 ad     - COMPLEMENT_FAC_MANTISSA:lda $ad                      //  b53d   a5 ad                                                
b53f: 49 ff     -         eor #$ff                     //  b53f   49 ff                                                  
b541: 85 ad     -         sta $ad                      //  b541   85 ad                                                
b543: a5 ae     -         lda $ae                      //  b543   a5 ae                                                
b545: 49 ff     -         eor #$ff                     //  b545   49 ff                                                  
b547: 85 ae     -         sta $ae                      //  b547   85 ae                                                
b549: a5 af     -         lda $af                      //  b549   a5 af                                                
b54b: 49 ff     -         eor #$ff                     //  b54b   49 ff                                                  
b54d: 85 af     -         sta $af                      //  b54d   85 af                                                
b54f: a5 b9     -         lda $b9                      //  b54f   a5 b9                                                
b551: 49 ff     -         eor #$ff                     //  b551   49 ff                                                  
b553: 85 b9     -         sta $b9                      //  b553   85 b9                                                
b555: e6 b9     -         inc $b9                      //  b555   e6 b9                                                
b557: d0 0a     -         bne $b563                    //  b557   d0 0a                                                  
b559: e6 af     - INCREMENT_FAC_MANTISSA:inc $af                      //  b559   e6 af                                                
b55b: d0 06     -         bne $b563                    //  b55b   d0 06                                                  
b55d: e6 ae     -         inc $ae                      //  b55d   e6 ae                                                
b55f: d0 02     -         bne $b563                    //  b55f   d0 02                                                  
b561: e6 ad     -         inc $ad                      //  b561   e6 ad                                                
b563: 60        - RTS12:  rts                          //  b563   60                                               
b564: a2 0a     - OVERFLOW:ldx #$0a                     //  b564   a2 0a                                                  
b566: 4c 4e a2  -         jmp $a24e                    //  b566   4c 4e a2                                               
b569: a2 74     - SHIFT_RIGHT1:ldx #$74                     //  b569   a2 74                                                  
b56b: b4 03     - SHIFT_RIGHT2:ldy $03,x                    //  b56b   b4 03                                                  
b56d: 84 b9     -         sty $b9                      //  b56d   84 b9                                                
b56f: b4 02     -         ldy $02,x                    //  b56f   b4 02                                                  
b571: 94 03     -         sty $03,x                    //  b571   94 03                                                  
b573: b4 01     -         ldy $01,x                    //  b573   b4 01                                                  
b575: 94 02     -         sty $02,x                    //  b575   94 02                                                  
b577: a4 b2     -         ldy $b2                      //  b577   a4 b2                                                
b579: 94 01     -         sty $01,x                    //  b579   94 01                                                  
b57b: 69 08     - SHIFT_RIGHT:adc #$08                     //  b57b   69 08                                                  
b57d: 30 ec     -         bmi $b56b                    //  b57d   30 ec                                                  
b57f: f0 ea     -         beq $b56b                    //  b57f   f0 ea                                                  
b581: e9 08     -         sbc #$08                     //  b581   e9 08                                                  
b583: a8        -         tay                          //  b583   a8                                               
b584: a5 b9     -         lda $b9                      //  b584   a5 b9                                                
b586: b0 12     -         bcs $b59a                    //  b586   b0 12                                                  
b588: 16 01     - lb588:  asl $01,x                    //  b588   16 01                                                  
b58a: 90 02     -         bcc $b58e                    //  b58a   90 02                                                  
b58c: f6 01     -         inc $01,x                    //  b58c   f6 01                                                  
b58e: 76 01     - lb58e:  ror $01,x                    //  b58e   76 01                                                  
b590: 76 01     -         ror $01,x                    //  b590   76 01                                                  
b592: 76 02     - SHIFT_RIGHT4:ror $02,x                    //  b592   76 02                                                  
b594: 76 03     -         ror $03,x                    //  b594   76 03                                                  
b596: 6a        -         ror                          //  b596   6a                                                 
b597: c8        -         iny                          //  b597   c8                                               
b598: d0 ee     -         bne $b588                    //  b598   d0 ee                                                  
b59a: 18        - SHIFT_RIGHT5:clc                          //  b59a   18                                               
b59b: 60        -         rts                          //  b59b   60                                               
b59c: 81 00     - CON_ONE:sta ($00,x)                   //  b59c   81 00                                                   
b59e: 00        -         brk                          //  b59e   00                                               
b59f: 00        - POLY_LOG:brk                          //  b59f   00                                               
b5a0: 02        -         .byte $02                    //  b5a0   02         %00000010                                                     
b5a1: 80        -         .byte $80                    //  b5a1   80         %10000000                                                     
b5a2: 19 56 62  -         ora $6256,y                   //  b5a2   19 56 62                                                 
b5a5: 80        -         .byte $80                    //  b5a5   80         %10000000                                                     
b5a6: 76 22     -         ror $22,x                    //  b5a6   76 22                                                  
b5a8: f3        -         .byte $f3                    //  b5a8   f3         %11110011                                                     
b5a9: 82        -         .byte $82                    //  b5a9   82         %10000010                                                     
b5aa: 38        -         sec                          //  b5aa   38                                               
b5ab: aa        -         tax                          //  b5ab   aa                                               
b5ac: 40        -         rti                          //  b5ac   40                                               
b5ad: 80        - CON_SQR_HALF:.byte $80                    //  b5ad   80         %10000000                                                     
b5ae: 35 04     -         and $04,x                    //  b5ae   35 04                                                  
b5b0: f3        -         .byte $f3                    //  b5b0   f3         %11110011                                                     
b5b1: 81 35     - CON_SQR_TWO:sta ($35,x)                   //  b5b1   81 35                                                   
b5b3: 04        -         .byte $04                    //  b5b3   04         %00000100                                                     
b5b4: f3        -         .byte $f3                    //  b5b4   f3         %11110011                                                     
b5b5: 80        - CON_NEG_HALF:.byte $80                    //  b5b5   80         %10000000                                                     
b5b6: 80        -         .byte $80                    //  b5b6   80         %10000000                                                     
b5b7: 00        -         brk                          //  b5b7   00                                               
b5b8: 00        -         brk                          //  b5b8   00                                               
b5b9: 80        - CON_LOG_TWO:.byte $80                    //  b5b9   80         %10000000                                                     
b5ba: 31 72     -         and ($72),y                   //  b5ba   31 72                                                   
b5bc: 18        -         clc                          //  b5bc   18                                               
b5bd: 20 ca b7  - LOG:    jsr $b7ca                    //  b5bd   20 ca b7                                               
b5c0: f0 02     -         beq $b5c4                    //  b5c0   f0 02                                                  
b5c2: 10 03     -         bpl $b5c7                    //  b5c2   10 03                                                  
b5c4: 4c 88 ae  - GIQ:    jmp $ae88                    //  b5c4   4c 88 ae                                               
b5c7: a5 ac     - LOG2:   lda $ac                      //  b5c7   a5 ac                                                
b5c9: e9 7f     -         sbc #$7f                     //  b5c9   e9 7f                                                  
b5cb: 48        -         pha                          //  b5cb   48                                               
b5cc: a9 80     -         lda #$80                     //  b5cc   a9 80                                                  
b5ce: 85 ac     -         sta $ac                      //  b5ce   85 ac                                                
b5d0: a9 ad     -         lda #$ad                     //  b5d0   a9 ad                                                  
b5d2: a0 b5     -         ldy #$b5                     //  b5d2   a0 b5                                                  
b5d4: 20 6c b4  -         jsr $b46c                    //  b5d4   20 6c b4                                               
b5d7: a9 b1     -         lda #$b1                     //  b5d7   a9 b1                                                  
b5d9: a0 b5     -         ldy #$b5                     //  b5d9   a0 b5                                                  
b5db: 20 ca b6  -         jsr FDIV                    //  b5db   20 ca b6                                               
b5de: a9 9c     -         lda #$9c                     //  b5de   a9 9c                                                  
b5e0: a0 b5     -         ldy #$b5                     //  b5e0   a0 b5                                                  
b5e2: 20 55 b4  -         jsr $b455                    //  b5e2   20 55 b4                                               
b5e5: a9 a0     -         lda #$a0                     //  b5e5   a9 a0                                                  
b5e7: a0 b5     -         ldy #$b5                     //  b5e7   a0 b5                                                  
b5e9: 20 6e bb  -         jsr POLYNOMIAL_ODD                    //  b5e9   20 6e bb                                               
b5ec: a9 b5     -         lda #$b5                     //  b5ec   a9 b5                                                  
b5ee: a0 b5     -         ldy #$b5                     //  b5ee   a0 b5                                                  
b5f0: 20 6c b4  -         jsr $b46c                    //  b5f0   20 6c b4                                               
b5f3: 68        -         pla                          //  b5f3   68                                               
b5f4: 20 12 b9  -         jsr $b912                    //  b5f4   20 12 b9                                               
b5f7: a9 b9     -         lda #$b9                     //  b5f7   a9 b9                                                  
b5f9: a0 b5     -         ldy #$b5                     //  b5f9   a0 b5                                                  
b5fb: 20 4d b6  - FMULT:  jsr $b64d                    //  b5fb   20 4d b6                                               
b5fe: f0 4c     - FMULTT: beq $b64c                    //  b5fe   f0 4c                                                  
b600: 20 73 b6  -         jsr $b673                    //  b600   20 73 b6                                               
b603: a9 00     -         lda #$00                     //  b603   a9 00                                                  
b605: 85 75     -         sta $75                      //  b605   85 75                                                
b607: 85 76     -         sta $76                      //  b607   85 76                                                
b609: 85 77     -         sta $77                      //  b609   85 77                                                
b60b: a5 b9     -         lda $b9                      //  b60b   a5 b9                                                
b60d: 20 22 b6  -         jsr $b622                    //  b60d   20 22 b6                                               
b610: a5 af     -         lda $af                      //  b610   a5 af                                                
b612: 20 22 b6  -         jsr $b622                    //  b612   20 22 b6                                               
b615: a5 ae     -         lda $ae                      //  b615   a5 ae                                                
b617: 20 22 b6  -         jsr $b622                    //  b617   20 22 b6                                               
b61a: a5 ad     -         lda $ad                      //  b61a   a5 ad                                                
b61c: 20 27 b6  -         jsr $b627                    //  b61c   20 27 b6                                               
b61f: 4c 3c b7  -         jmp $b73c                    //  b61f   4c 3c b7                                               
b622: d0 03     - MULTIPLY1:bne $b627                    //  b622   d0 03                                                  
b624: 4c 69 b5  -         jmp $b569                    //  b624   4c 69 b5                                               
b627: 4a        - MULTIPLY2:lsr                          //  b627   4a                                                 
b628: 09 80     -         ora #$80                     //  b628   09 80                                                  
b62a: a8        - lb62a:  tay                          //  b62a   a8                                               
b62b: 90 13     -         bcc $b640                    //  b62b   90 13                                                  
b62d: 18        -         clc                          //  b62d   18                                               
b62e: a5 77     -         lda $77                      //  b62e   a5 77                                                
b630: 65 b6     -         adc $b6                      //  b630   65 b6                                                
b632: 85 77     -         sta $77                      //  b632   85 77                                                
b634: a5 76     -         lda $76                      //  b634   a5 76                                                
b636: 65 b5     -         adc $b5                      //  b636   65 b5                                                
b638: 85 76     -         sta $76                      //  b638   85 76                                                
b63a: a5 75     -         lda $75                      //  b63a   a5 75                                                
b63c: 65 b4     -         adc $b4                      //  b63c   65 b4                                                
b63e: 85 75     -         sta $75                      //  b63e   85 75                                                
b640: 66 75     - lb640:  ror $75                      //  b640   66 75                                                
b642: 66 76     -         ror $76                      //  b642   66 76                                                
b644: 66 77     -         ror $77                      //  b644   66 77                                                
b646: 66 b9     -         ror $b9                      //  b646   66 b9                                                
b648: 98        -         tya                          //  b648   98                                               
b649: 4a        -         lsr                          //  b649   4a                                                 
b64a: d0 de     -         bne $b62a                    //  b64a   d0 de                                                  
b64c: 60        - lb64c:  rts                          //  b64c   60                                               
b64d: 85 71     - LOAD_ARG_FROM_YA:sta $71                      //  b64d   85 71                                                
b64f: 84 72     -         sty $72                      //  b64f   84 72                                                
b651: a0 03     -         ldy #$03                     //  b651   a0 03                                                  
b653: b1 71     -         lda ($71),y                   //  b653   b1 71                                                   
b655: 85 b6     -         sta $b6                      //  b655   85 b6                                                
b657: 88        -         dey                          //  b657   88                                               
b658: b1 71     -         lda ($71),y                   //  b658   b1 71                                                   
b65a: 85 b5     -         sta $b5                      //  b65a   85 b5                                                
b65c: 88        -         dey                          //  b65c   88                                               
b65d: b1 71     -         lda ($71),y                   //  b65d   b1 71                                                   
b65f: 85 b7     -         sta $b7                      //  b65f   85 b7                                                
b661: 45 b0     -         eor $b0                      //  b661   45 b0                                                
b663: 85 b8     -         sta $b8                      //  b663   85 b8                                                
b665: a5 b7     -         lda $b7                      //  b665   a5 b7                                                
b667: 09 80     -         ora #$80                     //  b667   09 80                                                  
b669: 85 b4     -         sta $b4                      //  b669   85 b4                                                
b66b: 88        -         dey                          //  b66b   88                                               
b66c: b1 71     -         lda ($71),y                   //  b66c   b1 71                                                   
b66e: 85 b3     -         sta $b3                      //  b66e   85 b3                                                
b670: a5 ac     -         lda $ac                      //  b670   a5 ac                                                
b672: 60        -         rts                          //  b672   60                                               
b673: a5 b3     - ADD_EXPONENTS:lda $b3                      //  b673   a5 b3                                                
b675: f0 1f     - ADD_EXPONENTS1:beq $b696                    //  b675   f0 1f                                                  
b677: 18        -         clc                          //  b677   18                                               
b678: 65 ac     -         adc $ac                      //  b678   65 ac                                                
b67a: 90 04     -         bcc $b680                    //  b67a   90 04                                                  
b67c: 30 1d     -         bmi $b69b                    //  b67c   30 1d                                                  
b67e: 18        -         clc                          //  b67e   18                                                         
b67f: 2c        -         .byte $2c                    //  b67f   2c
b680: 10 14     -         bpl ZERO                      //  b680   10 14 
b682: 69 80     -         adc #$80                     //  b682   69 80                                                  
b684: 85 ac     -         sta $ac                      //  b684   85 ac                                                
b686: d0 03     -         bne $b68b                    //  b686   d0 03                                                  
b688: 4c f5 b4  -         jmp $b4f5                    //  b688   4c f5 b4                                               
b68b: a5 b8     - lb68b:  lda $b8                      //  b68b   a5 b8                                                
b68d: 85 b0     -         sta $b0                      //  b68d   85 b0                                                
b68f: 60        -         rts                          //  b68f   60                                               
b690: a5 b0     - OUTOFRNG:lda $b0                      //  b690   a5 b0                                                
b692: 49 ff     -         eor #$ff                     //  b692   49 ff                                                  
b694: 30 05     -         bmi $b69b                    //  b694   30 05                                                  
b696: 68        - ZERO:   pla                          //  b696   68                                               
b697: 68        -         pla                          //  b697   68                                               
b698: 4c f1 b4  -         jmp $b4f1                    //  b698   4c f1 b4                                               
b69b: 4c 64 b5  - JOV:    jmp $b564                    //  b69b   4c 64 b5                                               
b69e: 20 ab b7  - MUL10:  jsr $b7ab                    //  b69e   20 ab b7                                               
b6a1: aa        -         tax                          //  b6a1   aa                                               
b6a2: f0 10     -         beq $b6b4                    //  b6a2   f0 10                                                  
b6a4: 18        -         clc                          //  b6a4   18                                               
b6a5: 69 02     -         adc #$02                     //  b6a5   69 02                                                  
b6a7: b0 f2     -         bcs $b69b                    //  b6a7   b0 f2                                                  
b6a9: a2 00     -         ldx #$00                     //  b6a9   a2 00                                                  
b6ab: 86 b8     -         stx $b8                      //  b6ab   86 b8                                                
b6ad: 20 7c b4  -         jsr $b47c                    //  b6ad   20 7c b4                                               
b6b0: e6 ac     -         inc $ac                      //  b6b0   e6 ac                                                
b6b2: f0 e7     -         beq $b69b                    //  b6b2   f0 e7                                                  
b6b4: 60        - lb6b4:  rts                          //  b6b4   60                                               
b6b5: 84 20 00 00                                      - CONTEN: .byte   $84,$20,$00,$00        //  b6b5   84 20 00 00                                               
b6b9: 20 ab b7  - DIV10:  jsr $b7ab                    //  b6b9   20 ab b7                                               
b6bc: a9 b5     -         lda #$b5                     //  b6bc   a9 b5                                                  
b6be: a0 b6     -         ldy #$b6                     //  b6be   a0 b6                                                  
b6c0: a2 00     -         ldx #$00                     //  b6c0   a2 00                                                  
b6c2: 86 b8     - DIV:    stx $b8                      //  b6c2   86 b8                                                
b6c4: 20 4b b7  -         jsr $b74b                    //  b6c4   20 4b b7                                               
b6c7: 4c cd b6  -         jmp $b6cd                    //  b6c7   4c cd b6                                               
b6ca: 20 4d b6  - FDIV:   jsr $b64d                    //  b6ca   20 4d b6                                               
b6cd: f0 68     - FDIVT:  beq $b737                    //  b6cd   f0 68                                                  
b6cf: 20 ba b7  -         jsr $b7ba                    //  b6cf   20 ba b7                                               
b6d2: a9 00     -         lda #$00                     //  b6d2   a9 00                                                  
b6d4: 38        -         sec                          //  b6d4   38                                               
b6d5: e5 ac     -         sbc $ac                      //  b6d5   e5 ac                                                
b6d7: 85 ac     -         sta $ac                      //  b6d7   85 ac                                                
b6d9: 20 73 b6  -         jsr $b673                    //  b6d9   20 73 b6                                               
b6dc: e6 ac     -         inc $ac                      //  b6dc   e6 ac                                                
b6de: f0 bb     -         beq $b69b                    //  b6de   f0 bb                                                  
b6e0: a2 fd     -         ldx #$fd                     //  b6e0   a2 fd                                                  
b6e2: a9 01     -         lda #$01                     //  b6e2   a9 01                                                  
b6e4: a4 b4     - lb6e4:  ldy $b4                      //  b6e4   a4 b4                                                
b6e6: c4 ad     -         cpy $ad                      //  b6e6   c4 ad                                                
b6e8: d0 0a     -         bne $b6f4                    //  b6e8   d0 0a                                                  
b6ea: a4 b5     -         ldy $b5                      //  b6ea   a4 b5                                                
b6ec: c4 ae     -         cpy $ae                      //  b6ec   c4 ae                                                
b6ee: d0 04     -         bne $b6f4                    //  b6ee   d0 04                                                  
b6f0: a4 b6     -         ldy $b6                      //  b6f0   a4 b6                                                
b6f2: c4 af     -         cpy $af                      //  b6f2   c4 af                                                
b6f4: 08        - lb6f4:  php                          //  b6f4   08                                               
b6f5: 2a        -         rol                          //  b6f5   2a                                                 
b6f6: 90 09     -         bcc $b701                    //  b6f6   90 09                                                  
b6f8: e8        -         inx                          //  b6f8   e8                                               
b6f9: 95 77     -         sta $77,x                    //  b6f9   95 77                                                  
b6fb: f0 2a     -         beq $b727                    //  b6fb   f0 2a                                                  
b6fd: 10 2c     -         bpl $b72b                    //  b6fd   10 2c                                                  
b6ff: a9 01     -         lda #$01                     //  b6ff   a9 01                                                  
b701: 28        - lb701:  plp                          //  b701   28                                               
b702: b0 0c     -         bcs $b710                    //  b702   b0 0c                                                  
b704: 06 b6     - lb704:  asl $b6                      //  b704   06 b6                                                
b706: 26 b5     -         rol $b5                      //  b706   26 b5                                                
b708: 26 b4     -         rol $b4                      //  b708   26 b4                                                
b70a: b0 e8     -         bcs $b6f4                    //  b70a   b0 e8                                                  
b70c: 30 d6     -         bmi $b6e4                    //  b70c   30 d6                                                  
b70e: 10 e4     -         bpl $b6f4                    //  b70e   10 e4                                                  
b710: a8        - lb710:  tay                          //  b710   a8                                               
b711: a5 b6     -         lda $b6                      //  b711   a5 b6                                                
b713: e5 af     -         sbc $af                      //  b713   e5 af                                                
b715: 85 b6     -         sta $b6                      //  b715   85 b6                                                
b717: a5 b5     -         lda $b5                      //  b717   a5 b5                                                
b719: e5 ae     -         sbc $ae                      //  b719   e5 ae                                                
b71b: 85 b5     -         sta $b5                      //  b71b   85 b5                                                
b71d: a5 b4     -         lda $b4                      //  b71d   a5 b4                                                
b71f: e5 ad     -         sbc $ad                      //  b71f   e5 ad                                                
b721: 85 b4     -         sta $b4                      //  b721   85 b4                                                
b723: 98        -         tya                          //  b723   98                                               
b724: 4c 04 b7  -         jmp $b704                    //  b724   4c 04 b7                                               
b727: a9 40     - lb727:  lda #$40                     //  b727   a9 40                                                  
b729: d0 d6     -         bne $b701                    //  b729   d0 d6                                                  
b72b: 0a        - lb72b:  asl                          //  b72b   0a                                                 
b72c: 0a        -         asl                          //  b72c   0a                                                 
b72d: 0a        -         asl                          //  b72d   0a                                                 
b72e: 0a        -         asl                          //  b72e   0a                                                 
b72f: 0a        -         asl                          //  b72f   0a                                                 
b730: 0a        -         asl                          //  b730   0a                                                 
b731: 85 b9     -         sta $b9                      //  b731   85 b9                                                
b733: 28        -         plp                          //  b733   28                                               
b734: 4c 3c b7  -         jmp $b73c                    //  b734   4c 3c b7                                               
b737: a2 14     - lb737:  ldx #$14                     //  b737   a2 14                                                  
b739: 4c 4e a2  -         jmp $a24e                    //  b739   4c 4e a2                                               
b73c: a5 75     - COPY_RESULT_INTO_FAC:lda $75                      //  b73c   a5 75                                                
b73e: 85 ad     -         sta $ad                      //  b73e   85 ad                                                
b740: a5 76     -         lda $76                      //  b740   a5 76                                                
b742: 85 ae     -         sta $ae                      //  b742   85 ae                                                
b744: a5 77     -         lda $77                      //  b744   a5 77                                                
b746: 85 af     -         sta $af                      //  b746   85 af                                                
b748: 4c d5 b4  -         jmp $b4d5                    //  b748   4c d5 b4                                               
b74b: 85 71     - LOAD_FAC_FROM_YA:sta $71                      //  b74b   85 71                                                
b74d: 84 72     -         sty $72                      //  b74d   84 72                                                
b74f: a0 03     -         ldy #$03                     //  b74f   a0 03                                                  
b751: b1 71     -         lda ($71),y                   //  b751   b1 71                                                   
b753: 85 af     -         sta $af                      //  b753   85 af                                                
b755: 88        -         dey                          //  b755   88                                               
b756: b1 71     -         lda ($71),y                   //  b756   b1 71                                                   
b758: 85 ae     -         sta $ae                      //  b758   85 ae                                                
b75a: 88        -         dey                          //  b75a   88                                               
b75b: b1 71     -         lda ($71),y                   //  b75b   b1 71                                                   
b75d: 85 b0     -         sta $b0                      //  b75d   85 b0                                                
b75f: 09 80     -         ora #$80                     //  b75f   09 80                                                  
b761: 85 ad     -         sta $ad                      //  b761   85 ad                                                
b763: 88        -         dey                          //  b763   88                                               
b764: b1 71     -         lda ($71),y                   //  b764   b1 71                                                   
b766: 85 ac     -         sta $ac                      //  b766   85 ac                                                
b768: 84 b9     -         sty $b9                      //  b768   84 b9                                                
b76a: 60        -         rts                          //  b76a   60                                               
b76b: a2 a8     - STORE_FAC_IN_TEMP2_ROUNDED:ldx #$a8                     //  b76b   a2 a8                                                  
b76d: 2c a2 a4  -         bit $a4a2                    //  b76d   2c a2 a4                                               
b770: a0 00     -         ldy #$00                     //  b770   a0 00                                                  
b772: f0 04     -         beq STORE_FAC_AT_YX_ROUNDED                    //  b772   f0 04                                                  
b774: a6 97     - SETFOR: ldx $97                      //  b774   a6 97                                                
b776: a4 98     -         ldy $98                      //  b776   a4 98                                                
b778: 20 ba b7  - STORE_FAC_AT_YX_ROUNDED:jsr $b7ba                    //  b778   20 ba b7                                               
b77b: 86 71     -         stx $71                      //  b77b   86 71                                                
b77d: 84 72     -         sty $72                      //  b77d   84 72                                                
b77f: a0 03     -         ldy #$03                     //  b77f   a0 03                                                  
b781: a5 af     -         lda $af                      //  b781   a5 af                                                
b783: 91 71     -         sta ($71),y                   //  b783   91 71                                                   
b785: 88        -         dey                          //  b785   88                                               
b786: a5 ae     -         lda $ae                      //  b786   a5 ae                                                
b788: 91 71     -         sta ($71),y                   //  b788   91 71                                                   
b78a: 88        -         dey                          //  b78a   88                                               
b78b: a5 b0     -         lda $b0                      //  b78b   a5 b0                                                
b78d: 09 7f     -         ora #$7f                     //  b78d   09 7f                                                  
b78f: 25 ad     -         and $ad                      //  b78f   25 ad                                                
b791: 91 71     -         sta ($71),y                   //  b791   91 71                                                   
b793: 88        -         dey                          //  b793   88                                               
b794: a5 ac     -         lda $ac                      //  b794   a5 ac                                                
b796: 91 71     -         sta ($71),y                   //  b796   91 71                                                   
b798: 84 b9     -         sty $b9                      //  b798   84 b9                                                
b79a: 60        -         rts                          //  b79a   60                                               
b79b: a5 b7     - COPY_ARG_TO_FAC:lda $b7                      //  b79b   a5 b7                                                
b79d: 85 b0     - MFA:    sta $b0                      //  b79d   85 b0                                                
b79f: a2 04     -         ldx #$04                     //  b79f   a2 04                                                  
b7a1: b5 b2     - lb7a1:  lda $b2,x                    //  b7a1   b5 b2                                                  
b7a3: 95 ab     -         sta $ab,x                    //  b7a3   95 ab                                                  
b7a5: ca        -         dex                          //  b7a5   ca                                               
b7a6: d0 f9     -         bne $b7a1                    //  b7a6   d0 f9                                                  
b7a8: 86 b9     -         stx $b9                      //  b7a8   86 b9                                                
b7aa: 60        -         rts                          //  b7aa   60                                               
b7ab: 20 ba b7  - COPY_FAC_TO_ARG_ROUNDED:jsr $b7ba                    //  b7ab   20 ba b7                                               
b7ae: a2 05     - MAF:    ldx #$05                     //  b7ae   a2 05                                                  
b7b0: b5 ab     - lb7b0:  lda $ab,x                    //  b7b0   b5 ab                                                  
b7b2: 95 b2     -         sta $b2,x                    //  b7b2   95 b2                                                  
b7b4: ca        -         dex                          //  b7b4   ca                                               
b7b5: d0 f9     -         bne $b7b0                    //  b7b5   d0 f9                                                  
b7b7: 86 b9     -         stx $b9                      //  b7b7   86 b9                                                
b7b9: 60        - RTS14:  rts                          //  b7b9   60                                               
b7ba: a5 ac     - ROUND_FAC:lda $ac                      //  b7ba   a5 ac                                                
b7bc: f0 fb     -         beq $b7b9                    //  b7bc   f0 fb                                                  
b7be: 06 b9     -         asl $b9                      //  b7be   06 b9                                                
b7c0: 90 f7     -         bcc $b7b9                    //  b7c0   90 f7                                                  
b7c2: 20 59 b5  - INCREMENT_MANTISSA:jsr $b559                    //  b7c2   20 59 b5                                               
b7c5: d0 f2     -         bne $b7b9                    //  b7c5   d0 f2                                                  
b7c7: 4c 2a b5  -         jmp $b52a                    //  b7c7   4c 2a b5                                               
b7ca: a5 ac     - SIGN:   lda $ac                      //  b7ca   a5 ac                                                
b7cc: f0 09     -         beq $b7d7                    //  b7cc   f0 09                                                  
b7ce: a5 b0     - lb7ce:  lda $b0                      //  b7ce   a5 b0                                                
b7d0: 2a        - SIGN2:  rol                          //  b7d0   2a                                                 
b7d1: a9 ff     -         lda #$ff                     //  b7d1   a9 ff                                                  
b7d3: b0 02     -         bcs $b7d7                    //  b7d3   b0 02                                                  
b7d5: a9 01     -         lda #$01                     //  b7d5   a9 01                                                  
b7d7: 60        - RTS15:  rts                          //  b7d7   60                                               
b7d8: 20 ca b7  - SGN:    jsr $b7ca                    //  b7d8   20 ca b7                                               
b7db: 85 ad     - FLOAT:  sta $ad                      //  b7db   85 ad                                                
b7dd: a9 00     -         lda #$00                     //  b7dd   a9 00                                                  
b7df: 85 ae     -         sta $ae                      //  b7df   85 ae                                                
b7e1: a2 88     -         ldx #$88                     //  b7e1   a2 88                                                  
b7e3: a5 ad     - FLOAT1: lda $ad                      //  b7e3   a5 ad                                                
b7e5: 49 ff     -         eor #$ff                     //  b7e5   49 ff                                                  
b7e7: 2a        -         rol                          //  b7e7   2a                                                 
b7e8: a9 00     - FLOAT2: lda #$00                     //  b7e8   a9 00                                                  
b7ea: 85 af     -         sta $af                      //  b7ea   85 af                                                
b7ec: 86 ac     -         stx $ac                      //  b7ec   86 ac                                                
b7ee: 85 b9     -         sta $b9                      //  b7ee   85 b9                                                
b7f0: 85 b0     -         sta $b0                      //  b7f0   85 b0                                                
b7f2: 4c d0 b4  -         jmp $b4d0                    //  b7f2   4c d0 b4                                               
b7f5: 46 b0     - ABS:    lsr $b0                      //  b7f5   46 b0                                                
b7f7: 60        -         rts                          //  b7f7   60                                               
b7f8: 85 73     - FCOMP:  sta $73                      //  b7f8   85 73                                                
b7fa: 84 74     - FCOMP2: sty $74                      //  b7fa   84 74                                                
b7fc: a0 00     -         ldy #$00                     //  b7fc   a0 00                                                  
b7fe: b1 73     -         lda ($73),y                   //  b7fe   b1 73                                                   
b800: c8        -         iny                          //  b800   c8                                               
b801: aa        -         tax                          //  b801   aa                                               
b802: f0 c6     -         beq $b7ca                    //  b802   f0 c6                                                  
b804: b1 73     -         lda ($73),y                   //  b804   b1 73                                                   
b806: 45 b0     -         eor $b0                      //  b806   45 b0                                                
b808: 30 c4     -         bmi $b7ce                    //  b808   30 c4                                                  
b80a: e4 ac     -         cpx $ac                      //  b80a   e4 ac                                                
b80c: d0 1a     -         bne $b828                    //  b80c   d0 1a                                                  
b80e: b1 73     -         lda ($73),y                   //  b80e   b1 73                                                   
b810: 09 80     -         ora #$80                     //  b810   09 80                                                  
b812: c5 ad     -         cmp $ad                      //  b812   c5 ad                                                
b814: d0 12     -         bne $b828                    //  b814   d0 12                                                  
b816: c8        -         iny                          //  b816   c8                                               
b817: b1 73     -         lda ($73),y                   //  b817   b1 73                                                   
b819: c5 ae     -         cmp $ae                      //  b819   c5 ae                                                
b81b: d0 0b     -         bne $b828                    //  b81b   d0 0b                                                  
b81d: c8        -         iny                          //  b81d   c8                                               
b81e: a9 7f     -         lda #$7f                     //  b81e   a9 7f                                                  
b820: c5 b9     -         cmp $b9                      //  b820   c5 b9                                                
b822: b1 73     -         lda ($73),y                   //  b822   b1 73                                                   
b824: e5 af     -         sbc $af                      //  b824   e5 af                                                
b826: f0 28     -         beq $b850                    //  b826   f0 28                                                  
b828: a5 b0     - lb828:  lda $b0                      //  b828   a5 b0                                                
b82a: 90 02     -         bcc $b82e                    //  b82a   90 02                                                  
b82c: 49 ff     -         eor #$ff                     //  b82c   49 ff                                                  
b82e: 4c d0 b7  - lb82e:  jmp $b7d0                    //  b82e   4c d0 b7                                               
b831: a5 ac     - QINT:   lda $ac                      //  b831   a5 ac                                                
b833: f0 4a     -         beq $b87f                    //  b833   f0 4a                                                  
b835: 38        -         sec                          //  b835   38                                               
b836: e9 98     -         sbc #$98                     //  b836   e9 98                                                  
b838: 24 b0     -         bit $b0                      //  b838   24 b0                                                
b83a: 10 09     -         bpl $b845                    //  b83a   10 09                                                  
b83c: aa        -         tax                          //  b83c   aa                                               
b83d: a9 ff     -         lda #$ff                     //  b83d   a9 ff                                                  
b83f: 85 b2     -         sta $b2                      //  b83f   85 b2                                                
b841: 20 3d b5  -         jsr $b53d                    //  b841   20 3d b5                                               
b844: 8a        -         txa                          //  b844   8a                                               
b845: a2 ac     - lb845:  ldx #$ac                     //  b845   a2 ac                                                  
b847: c9 f9     -         cmp #$f9                     //  b847   c9 f9                                                  
b849: 10 06     -         bpl $b851                    //  b849   10 06                                                  
b84b: 20 7b b5  -         jsr $b57b                    //  b84b   20 7b b5                                               
b84e: 84 b2     -         sty $b2                      //  b84e   84 b2                                                
b850: 60        - lb850:  rts                          //  b850   60                                               
b851: a8        - QINT2:  tay                          //  b851   a8                                               
b852: a5 b0     -         lda $b0                      //  b852   a5 b0                                                
b854: 29 80     -         and #$80                     //  b854   29 80                                                  
b856: 46 ad     -         lsr $ad                      //  b856   46 ad                                                
b858: 05 ad     -         ora $ad                      //  b858   05 ad                                                
b85a: 85 ad     -         sta $ad                      //  b85a   85 ad                                                
b85c: 20 92 b5  -         jsr $b592                    //  b85c   20 92 b5                                               
b85f: 84 b2     -         sty $b2                      //  b85f   84 b2                                                
b861: 60        -         rts                          //  b861   60                                               
b862: a5 ac     - INT:    lda $ac                      //  b862   a5 ac                                                
b864: c9 98     -         cmp #$98                     //  b864   c9 98                                                  
b866: b0 1e     -         bcs $b886                    //  b866   b0 1e                                                  
b868: 20 31 b8  -         jsr $b831                    //  b868   20 31 b8                                               
b86b: 84 b9     -         sty $b9                      //  b86b   84 b9                                                
b86d: a5 b0     -         lda $b0                      //  b86d   a5 b0                                                
b86f: 84 b0     -         sty $b0                      //  b86f   84 b0                                                
b871: 49 80     -         eor #$80                     //  b871   49 80                                                  
b873: 2a        -         rol                          //  b873   2a                                                 
b874: a9 98     -         lda #$98                     //  b874   a9 98                                                  
b876: 85 ac     -         sta $ac                      //  b876   85 ac                                                
b878: a5 af     -         lda $af                      //  b878   a5 af                                                
b87a: 85 5b     -         sta $5b                      //  b87a   85 5b                                                
b87c: 4c d0 b4  -         jmp $b4d0                    //  b87c   4c d0 b4                                               
b87f: 85 ad     - QINT3:  sta $ad                      //  b87f   85 ad                                                
b881: 85 ae     -         sta $ae                      //  b881   85 ae                                                
b883: 85 af     -         sta $af                      //  b883   85 af                                                
b885: a8        -         tay                          //  b885   a8                                               
b886: 60        - RTS17:  rts                          //  b886   60                                               
b887: a0 00     - FIN:    ldy #$00                     //  b887   a0 00                                                  
b889: a2 09     -         ldx #$09                     //  b889   a2 09                                                  
b88b: 94 a8     - lb88b:  sty $a8,x                    //  b88b   94 a8                                                  
b88d: ca        -         dex                          //  b88d   ca                                               
b88e: 10 fb     -         bpl $b88b                    //  b88e   10 fb                                                  
b890: 90 0f     -         bcc $b8a1                    //  b890   90 0f                                                  
b892: c9 2d     -         cmp #$2d                     //  b892   c9 2d                                                  
b894: d0 04     -         bne $b89a                    //  b894   d0 04                                                  
b896: 86 b1     -         stx $b1                      //  b896   86 b1                                                
b898: f0 04     -         beq $b89e                    //  b898   f0 04                                                  
b89a: c9 2b     - lb89a:  cmp #$2b                     //  b89a   c9 2b                                                  
b89c: d0 05     -         bne $b8a3                    //  b89c   d0 05                                                  
b89e: 20 bc 00  - FIN1:   jsr $00bc                    //  b89e   20 bc 00                                               
b8a1: 90 5b     - FIN2:   bcc $b8fe                    //  b8a1   90 5b                                                  
b8a3: c9 2e     - FIN3:   cmp #$2e                     //  b8a3   c9 2e                                                  
b8a5: f0 2e     -         beq $b8d5                    //  b8a5   f0 2e                                                  
b8a7: c9 45     -         cmp #$45                     //  b8a7   c9 45                                                  
b8a9: d0 30     -         bne $b8db                    //  b8a9   d0 30                                                  
b8ab: 20 bc 00  -         jsr $00bc                    //  b8ab   20 bc 00                                               
b8ae: 90 17     -         bcc $b8c7                    //  b8ae   90 17                                                  
b8b0: c9 a4     -         cmp #$a4                     //  b8b0   c9 a4                                                  
b8b2: f0 0e     -         beq $b8c2                    //  b8b2   f0 0e                                                  
b8b4: c9 2d     -         cmp #$2d                     //  b8b4   c9 2d                                                  
b8b6: f0 0a     -         beq $b8c2                    //  b8b6   f0 0a                                                  
b8b8: c9 a3     -         cmp #$a3                     //  b8b8   c9 a3                                                  
b8ba: f0 08     -         beq $b8c4                    //  b8ba   f0 08                                                  
b8bc: c9 2b     -         cmp #$2b                     //  b8bc   c9 2b                                                  
b8be: f0 04     -         beq $b8c4                    //  b8be   f0 04                                                  
b8c0: d0 07     -         bne $b8c9                    //  b8c0   d0 07                                                  
b8c2: 66 ab     - lb8c2:  ror $ab                      //  b8c2   66 ab                                                
b8c4: 20 bc 00  - FIN4:   jsr $00bc                    //  b8c4   20 bc 00                                               
b8c7: 90 5c     - FIN5:   bcc $b925                    //  b8c7   90 5c                                                  
b8c9: 24 ab     - FIN6:   bit $ab                      //  b8c9   24 ab                                                
b8cb: 10 0e     -         bpl $b8db                    //  b8cb   10 0e                                                  
b8cd: a9 00     -         lda #$00                     //  b8cd   a9 00                                                  
b8cf: 38        -         sec                          //  b8cf   38                                               
b8d0: e5 a9     -         sbc $a9                      //  b8d0   e5 a9                                                
b8d2: 4c dd b8  -         jmp $b8dd                    //  b8d2   4c dd b8                                               
b8d5: 66 aa     - FIN10:  ror $aa                      //  b8d5   66 aa                                                
b8d7: 24 aa     -         bit $aa                      //  b8d7   24 aa                                                
b8d9: 50 c3     -         bvc $b89e                    //  b8d9   50 c3                                                  
b8db: a5 a9     - FIN7:   lda $a9                      //  b8db   a5 a9                                                
b8dd: 38        - FIN8:   sec                          //  b8dd   38                                               
b8de: e5 a8     -         sbc $a8                      //  b8de   e5 a8                                                
b8e0: 85 a9     -         sta $a9                      //  b8e0   85 a9                                                
b8e2: f0 12     -         beq $b8f6                    //  b8e2   f0 12                                                  
b8e4: 10 09     -         bpl $b8ef                    //  b8e4   10 09                                                  
b8e6: 20 b9 b6  - lb8e6:  jsr $b6b9                    //  b8e6   20 b9 b6                                               
b8e9: e6 a9     -         inc $a9                      //  b8e9   e6 a9                                                
b8eb: d0 f9     -         bne $b8e6                    //  b8eb   d0 f9                                                  
b8ed: f0 07     -         beq $b8f6                    //  b8ed   f0 07                                                  
b8ef: 20 9e b6  - lb8ef:  jsr $b69e                    //  b8ef   20 9e b6                                               
b8f2: c6 a9     -         dec $a9                      //  b8f2   c6 a9                                                
b8f4: d0 f9     -         bne $b8ef                    //  b8f4   d0 f9                                                  
b8f6: a5 b1     - lb8f6:  lda $b1                      //  b8f6   a5 b1                                                
b8f8: 30 01     -         bmi $b8fb                    //  b8f8   30 01                                                  
b8fa: 60        -         rts                          //  b8fa   60                                               
b8fb: 4c ef ba  - lb8fb:  jmp $baef                    //  b8fb   4c ef ba                                               
b8fe: 48        - FIN9:   pha                          //  b8fe   48                                               
b8ff: 24 aa     -         bit $aa                      //  b8ff   24 aa                                                
b901: 10 02     -         bpl $b905                    //  b901   10 02                                                  
b903: e6 a8     -         inc $a8                      //  b903   e6 a8                                                
b905: 20 9e b6  - lb905:  jsr $b69e                    //  b905   20 9e b6                                               
b908: 68        -         pla                          //  b908   68                                               
b909: 38        -         sec                          //  b909   38                                               
b90a: e9 30     -         sbc #$30                     //  b90a   e9 30                                                  
b90c: 20 12 b9  -         jsr $b912                    //  b90c   20 12 b9                                               
b90f: 4c 9e b8  -         jmp $b89e                    //  b90f   4c 9e b8                                               
b912: 48        - ADDACC: pha                          //  b912   48                                               
b913: 20 ab b7  -         jsr $b7ab                    //  b913   20 ab b7                                               
b916: 68        -         pla                          //  b916   68                                               
b917: 20 db b7  -         jsr $b7db                    //  b917   20 db b7                                               
b91a: a5 b7     -         lda $b7                      //  b91a   a5 b7                                                
b91c: 45 b0     -         eor $b0                      //  b91c   45 b0                                                
b91e: 85 b8     -         sta $b8                      //  b91e   85 b8                                                
b920: a6 ac     -         ldx $ac                      //  b920   a6 ac                                                
b922: 4c 6f b4  -         jmp $b46f                    //  b922   4c 6f b4                                               
b925: a5 a9     - GETEXP: lda $a9                      //  b925   a5 a9                                                
b927: c9 0a     -         cmp #$0a                     //  b927   c9 0a                                                  
b929: 90 09     -         bcc $b934                    //  b929   90 09                                                  
b92b: a9 64     -         lda #$64                     //  b92b   a9 64                                                  
b92d: 24 ab     -         bit $ab                      //  b92d   24 ab                                                
b92f: 30 11     -         bmi $b942                    //  b92f   30 11                                                  
b931: 4c 64 b5  -         jmp $b564                    //  b931   4c 64 b5                                               
b934: 0a        - lb934:  asl                          //  b934   0a                                                 
b935: 0a        -         asl                          //  b935   0a                                                 
b936: 18        -         clc                          //  b936   18                                               
b937: 65 a9     -         adc $a9                      //  b937   65 a9                                                
b939: 0a        -         asl                          //  b939   0a                                                 
b93a: 18        -         clc                          //  b93a   18                                               
b93b: a0 00     -         ldy #$00                     //  b93b   a0 00                                                  
b93d: 71 c3     -         adc ($c3),y                   //  b93d   71 c3                                                   
b93f: 38        -         sec                          //  b93f   38                                               
b940: e9 30     -         sbc #$30                     //  b940   e9 30                                                  
b942: 85 a9     - lb942:  sta $a9                      //  b942   85 a9                                                
b944: 4c c4 b8  -         jmp $b8c4                    //  b944   4c c4 b8                                               
b947: 91 43     -         sta ($43),y                   //  b947   91 43                                                   
b949: 4f        -         .byte $4f                    //  b949   4f         %01001111 'O'                                                     
b94a: f8        -         sed                          //  b94a   f8                                               
b94b: 94 74     -         sty $74,x                    //  b94b   94 74                                                  
b94d: 23        -         .byte $23                    //  b94d   23         %00100011 '#'                                                     
b94e: f7        -         .byte $f7                    //  b94e   f7         %11110111                                                     
b94f: 94 74     -         sty $74,x                    //  b94f   94 74                                                  
b951: 24 00     -         bit $00                      //  b951   24 00                                                
b953: a9 8d     - INPRT:  lda #$8d                     //  b953   a9 8d                                                  
b955: a0 a1     -         ldy #$a1                     //  b955   a0 a1                                                  
b957: 20 6b b9  -         jsr $b96b                    //  b957   20 6b b9                                               
b95a: a5 88     -         lda $88                      //  b95a   a5 88                                                
b95c: a6 87     -         ldx $87                      //  b95c   a6 87                                                
b95e: 85 ad     - LINPRT: sta $ad                      //  b95e   85 ad                                                
b960: 86 ae     -         stx $ae                      //  b960   86 ae                                                
b962: a2 90     -         ldx #$90                     //  b962   a2 90                                                  
b964: 38        -         sec                          //  b964   38                                               
b965: 20 e8 b7  -         jsr $b7e8                    //  b965   20 e8 b7                                               
b968: 20 6e b9  -         jsr $b96e                    //  b968   20 6e b9                                               
b96b: 4c c3 a8  - GOSTROUT2:jmp $a8c3                    //  b96b   4c c3 a8                                               
b96e: a0 01     - FOUT:   ldy #$01                     //  b96e   a0 01                                                  
b970: a9 20     - FOUT1:  lda #$20                     //  b970   a9 20                                                  
b972: 24 b0     -         bit $b0                      //  b972   24 b0                                                
b974: 10 02     -         bpl $b978                    //  b974   10 02                                                  
b976: a9 2d     -         lda #$2d                     //  b976   a9 2d                                                  
b978: 99 ff 00  - lb978:  sta $00ff,y                   //  b978   99 ff 00                                                 
b97b: 85 b0     -         sta $b0                      //  b97b   85 b0                                                
b97d: 84 ba     -         sty $ba                      //  b97d   84 ba                                                
b97f: c8        -         iny                          //  b97f   c8                                               
b980: a9 30     -         lda #$30                     //  b980   a9 30                                                  
b982: a6 ac     -         ldx $ac                      //  b982   a6 ac                                                
b984: d0 03     -         bne $b989                    //  b984   d0 03                                                  
b986: 4c 89 ba  -         jmp $ba89                    //  b986   4c 89 ba                                               
b989: a9 00     - lb989:  lda #$00                     //  b989   a9 00                                                  
b98b: e0 80     -         cpx #$80                     //  b98b   e0 80                                                  
b98d: f0 02     -         beq $b991                    //  b98d   f0 02                                                  
b98f: b0 09     -         bcs $b99a                    //  b98f   b0 09                                                  
b991: a9 4f     - lb991:  lda #$4f                     //  b991   a9 4f                                                  
b993: a0 b9     -         ldy #$b9                     //  b993   a0 b9                                                  
b995: 20 fb b5  -         jsr FMULT                    //  b995   20 fb b5                                               
b998: a9 fa     -         lda #$fa                     //  b998   a9 fa                                                  
b99a: 85 a8     - lb99a:  sta $a8                      //  b99a   85 a8                                                
b99c: a9 4b     - lb99c:  lda #$4b                     //  b99c   a9 4b                                                  
b99e: a0 b9     -         ldy #$b9                     //  b99e   a0 b9                                                  
b9a0: 20 f8 b7  -         jsr $b7f8                    //  b9a0   20 f8 b7                                               
b9a3: f0 1e     -         beq $b9c3                    //  b9a3   f0 1e                                                  
b9a5: 10 12     -         bpl $b9b9                    //  b9a5   10 12                                                  
b9a7: a9 47     - lb9a7:  lda #$47                     //  b9a7   a9 47                                                  
b9a9: a0 b9     -         ldy #$b9                     //  b9a9   a0 b9                                                  
b9ab: 20 f8 b7  -         jsr $b7f8                    //  b9ab   20 f8 b7                                               
b9ae: f0 02     -         beq $b9b2                    //  b9ae   f0 02                                                  
b9b0: 10 0e     -         bpl $b9c0                    //  b9b0   10 0e                                                  
b9b2: 20 9e b6  - lb9b2:  jsr $b69e                    //  b9b2   20 9e b6                                               
b9b5: c6 a8     -         dec $a8                      //  b9b5   c6 a8                                                
b9b7: d0 ee     -         bne $b9a7                    //  b9b7   d0 ee                                                  
b9b9: 20 b9 b6  - lb9b9:  jsr $b6b9                    //  b9b9   20 b9 b6                                               
b9bc: e6 a8     -         inc $a8                      //  b9bc   e6 a8                                                
b9be: d0 dc     -         bne $b99c                    //  b9be   d0 dc                                                  
b9c0: 20 4e b4  - lb9c0:  jsr $b44e                    //  b9c0   20 4e b4                                               
b9c3: 20 31 b8  - lb9c3:  jsr $b831                    //  b9c3   20 31 b8                                               
b9c6: a2 01     -         ldx #$01                     //  b9c6   a2 01                                                  
b9c8: a5 a8     -         lda $a8                      //  b9c8   a5 a8                                                
b9ca: 18        -         clc                          //  b9ca   18                                               
b9cb: 69 07     -         adc #$07                     //  b9cb   69 07                                                  
b9cd: 30 09     -         bmi $b9d8                    //  b9cd   30 09                                                  
b9cf: c9 08     -         cmp #$08                     //  b9cf   c9 08                                                  
b9d1: b0 06     -         bcs $b9d9                    //  b9d1   b0 06                                                  
b9d3: 69 ff     -         adc #$ff                     //  b9d3   69 ff                                                  
b9d5: aa        -         tax                          //  b9d5   aa                                               
b9d6: a9 02     -         lda #$02                     //  b9d6   a9 02                                                  
b9d8: 38        - lb9d8:  sec                          //  b9d8   38                                               
b9d9: e9 02     - lb9d9:  sbc #$02                     //  b9d9   e9 02                                                  
b9db: 85 a9     -         sta $a9                      //  b9db   85 a9                                                
b9dd: 86 a8     -         stx $a8                      //  b9dd   86 a8                                                
b9df: 8a        -         txa                          //  b9df   8a                                               
b9e0: f0 02     -         beq $b9e4                    //  b9e0   f0 02                                                  
b9e2: 10 13     -         bpl $b9f7                    //  b9e2   10 13                                                  
b9e4: a4 ba     - lb9e4:  ldy $ba                      //  b9e4   a4 ba                                                
b9e6: a9 2e     -         lda #$2e                     //  b9e6   a9 2e                                                  
b9e8: c8        -         iny                          //  b9e8   c8                                               
b9e9: 99 ff 00  -         sta $00ff,y                   //  b9e9   99 ff 00                                                 
b9ec: 8a        -         txa                          //  b9ec   8a                                               
b9ed: f0 06     -         beq $b9f5                    //  b9ed   f0 06                                                  
b9ef: a9 30     -         lda #$30                     //  b9ef   a9 30                                                  
b9f1: c8        -         iny                          //  b9f1   c8                                               
b9f2: 99 ff 00  -         sta $00ff,y                   //  b9f2   99 ff 00                                                 
b9f5: 84 ba     - lb9f5:  sty $ba                      //  b9f5   84 ba                                                
b9f7: a0 00     - lb9f7:  ldy #$00                     //  b9f7   a0 00                                                  
b9f9: a2 80     -         ldx #$80                     //  b9f9   a2 80                                                  
b9fb: a5 af     - lb9fb:  lda $af                      //  b9fb   a5 af                                                
b9fd: 18        -         clc                          //  b9fd   18                                               
b9fe: 79 9c ba  -         adc $ba9c,y                   //  b9fe   79 9c ba                                                 
ba01: 85 af     -         sta $af                      //  ba01   85 af                                                
ba03: a5 ae     -         lda $ae                      //  ba03   a5 ae                                                
ba05: 79 9b ba  -         adc $ba9b,y                   //  ba05   79 9b ba                                                 
ba08: 85 ae     -         sta $ae                      //  ba08   85 ae                                                
ba0a: a5 ad     -         lda $ad                      //  ba0a   a5 ad                                                
ba0c: 79 9a ba  -         adc $ba9a,y                   //  ba0c   79 9a ba                                                 
ba0f: 85 ad     -         sta $ad                      //  ba0f   85 ad                                                
ba11: e8        -         inx                          //  ba11   e8                                               
ba12: b0 04     -         bcs $ba18                    //  ba12   b0 04                                                  
ba14: 10 e5     -         bpl $b9fb                    //  ba14   10 e5                                                  
ba16: 30 02     -         bmi $ba1a                    //  ba16   30 02                                                  
ba18: 30 e1     - lba18:  bmi $b9fb                    //  ba18   30 e1                                                  
ba1a: 8a        - lba1a:  txa                          //  ba1a   8a                                               
ba1b: 90 04     -         bcc $ba21                    //  ba1b   90 04                                                  
ba1d: 49 ff     -         eor #$ff                     //  ba1d   49 ff                                                  
ba1f: 69 0a     -         adc #$0a                     //  ba1f   69 0a                                                  
ba21: 69 2f     - lba21:  adc #$2f                     //  ba21   69 2f                                                  
ba23: c8        -         iny                          //  ba23   c8                                               
ba24: c8        -         iny                          //  ba24   c8                                               
ba25: c8        -         iny                          //  ba25   c8                                               
ba26: 84 95     -         sty $95                      //  ba26   84 95                                                
ba28: a4 ba     -         ldy $ba                      //  ba28   a4 ba                                                
ba2a: c8        -         iny                          //  ba2a   c8                                               
ba2b: aa        -         tax                          //  ba2b   aa                                               
ba2c: 29 7f     -         and #$7f                     //  ba2c   29 7f                                                  
ba2e: 99 ff 00  -         sta $00ff,y                   //  ba2e   99 ff 00                                                 
ba31: c6 a8     -         dec $a8                      //  ba31   c6 a8                                                
ba33: d0 06     -         bne $ba3b                    //  ba33   d0 06                                                  
ba35: a9 2e     -         lda #$2e                     //  ba35   a9 2e                                                  
ba37: c8        -         iny                          //  ba37   c8                                               
ba38: 99 ff 00  -         sta $00ff,y                   //  ba38   99 ff 00                                                 
ba3b: 84 ba     - lba3b:  sty $ba                      //  ba3b   84 ba                                                
ba3d: a4 95     -         ldy $95                      //  ba3d   a4 95                                                
ba3f: 8a        -         txa                          //  ba3f   8a                                               
ba40: 49 ff     -         eor #$ff                     //  ba40   49 ff                                                  
ba42: 29 80     -         and #$80                     //  ba42   29 80                                                  
ba44: aa        -         tax                          //  ba44   aa                                               
ba45: c0 12     -         cpy #$12                     //  ba45   c0 12                                                  
ba47: d0 b2     -         bne $b9fb                    //  ba47   d0 b2                                                  
ba49: a4 ba     -         ldy $ba                      //  ba49   a4 ba                                                
ba4b: b9 ff 00  - lba4b:  lda $00ff,y                   //  ba4b   b9 ff 00                                                 
ba4e: 88        -         dey                          //  ba4e   88                                               
ba4f: c9 30     -         cmp #$30                     //  ba4f   c9 30                                                  
ba51: f0 f8     -         beq $ba4b                    //  ba51   f0 f8                                                  
ba53: c9 2e     -         cmp #$2e                     //  ba53   c9 2e                                                  
ba55: f0 01     -         beq $ba58                    //  ba55   f0 01                                                  
ba57: c8        -         iny                          //  ba57   c8                                               
ba58: a9 2b     - lba58:  lda #$2b                     //  ba58   a9 2b                                                  
ba5a: a6 a9     -         ldx $a9                      //  ba5a   a6 a9                                                
ba5c: f0 2e     -         beq $ba8c                    //  ba5c   f0 2e                                                  
ba5e: 10 08     -         bpl $ba68                    //  ba5e   10 08                                                  
ba60: a9 00     -         lda #$00                     //  ba60   a9 00                                                  
ba62: 38        -         sec                          //  ba62   38                                               
ba63: e5 a9     -         sbc $a9                      //  ba63   e5 a9                                                
ba65: aa        -         tax                          //  ba65   aa                                               
ba66: a9 2d     -         lda #$2d                     //  ba66   a9 2d                                                  
ba68: 99 01 01  - lba68:  sta $0101,y                   //  ba68   99 01 01                                                 
ba6b: a9 45     -         lda #$45                     //  ba6b   a9 45                                                  
ba6d: 99 00 01  -         sta $0100,y                   //  ba6d   99 00 01                                                 
ba70: 8a        -         txa                          //  ba70   8a                                               
ba71: a2 2f     -         ldx #$2f                     //  ba71   a2 2f                                                  
ba73: 38        -         sec                          //  ba73   38                                               
ba74: e8        - lba74:  inx                          //  ba74   e8                                               
ba75: e9 0a     -         sbc #$0a                     //  ba75   e9 0a                                                  
ba77: b0 fb     -         bcs $ba74                    //  ba77   b0 fb                                                  
ba79: 69 3a     -         adc #$3a                     //  ba79   69 3a                                                  
ba7b: 99 03 01  -         sta $0103,y                   //  ba7b   99 03 01                                                 
ba7e: 8a        -         txa                          //  ba7e   8a                                               
ba7f: 99 02 01  -         sta $0102,y                   //  ba7f   99 02 01                                                 
ba82: a9 00     -         lda #$00                     //  ba82   a9 00                                                  
ba84: 99 04 01  -         sta $0104,y                   //  ba84   99 04 01                                                 
ba87: f0 08     -         beq $ba91                    //  ba87   f0 08                                                  
ba89: 99 ff 00  - lba89:  sta $00ff,y                   //  ba89   99 ff 00                                                 
ba8c: a9 00     - lba8c:  lda #$00                     //  ba8c   a9 00                                                  
ba8e: 99 00 01  -         sta $0100,y                   //  ba8e   99 00 01                                                 
ba91: a9 00     - lba91:  lda #$00                     //  ba91   a9 00                                                  
ba93: a0 01     -         ldy #$01                     //  ba93   a0 01                                                  
ba95: 60        -         rts                          //  ba95   60                                               
ba96: 80        - CON_HALF:.byte $80                    //  ba96   80         %10000000                                                     
ba97: 00        -         brk                          //  ba97   00                                               
ba98: 00        -         brk                          //  ba98   00                                               
ba99: 00        -         brk                          //  ba99   00                                               
ba9a: fe 79 60  - DECTBL: .byte $FE,$79,$60 // -100000       // ba9a fe 79 60
ba9d: 00 27 10  -         .byte	$00,$27,$10 // 10000         // ba9d 00 27 10
baa0: ff fc 18  -         .byte	$FF,$FC,$18 // -1000         // baa0 ff fc 18
baa3: 00 00 64  -         .byte	$00,$00,$64 // 100           // baa3 00 00 64
baa6: ff ff f6  -         .byte	$FF,$FF,$F6 // -10           // baa6 ff ff f6
baa9: 00 00 01  -         .byte	$00,$00,$01 // 1             // bab9 00 00 01
baac: 20 ab b7  - DECTBL_END,SQR:jsr $b7ab                    //  baac   20 ab b7                                                 
baaf: a9 96     -         lda #$96                     //  baaf   a9 96                                                  
bab1: a0 ba     -         ldy #$ba                     //  bab1   a0 ba                                                  
bab3: 20 4b b7  -         jsr $b74b                    //  bab3   20 4b b7                                               
bab6: f0 63     - FPWRT:  beq $bb1b                    //  bab6   f0 63                                                  
bab8: a5 b3     -         lda $b3                      //  bab8   a5 b3                                                
baba: d0 03     -         bne $babf                    //  baba   d0 03                                                  
babc: 4c f3 b4  -         jmp $b4f3                    //  babc   4c f3 b4                                               
babf: a2 9c     - lbabf:  ldx #$9c                     //  babf   a2 9c                                                  
bac1: a0 00     -         ldy #$00                     //  bac1   a0 00                                                  
bac3: 20 78 b7  -         jsr STORE_FAC_AT_YX_ROUNDED                    //  bac3   20 78 b7                                               
bac6: a5 b7     -         lda $b7                      //  bac6   a5 b7                                                
bac8: 10 0f     -         bpl $bad9                    //  bac8   10 0f                                                  
baca: 20 62 b8  -         jsr $b862                    //  baca   20 62 b8                                               
bacd: a9 9c     -         lda #$9c                     //  bacd   a9 9c                                                  
bacf: a0 00     -         ldy #$00                     //  bacf   a0 00                                                  
bad1: 20 f8 b7  -         jsr $b7f8                    //  bad1   20 f8 b7                                               
bad4: d0 03     -         bne $bad9                    //  bad4   d0 03                                                  
bad6: 98        -         tya                          //  bad6   98                                               
bad7: a4 5b     -         ldy $5b                      //  bad7   a4 5b                                                
bad9: 20 9d b7  - lbad9:  jsr $b79d                    //  bad9   20 9d b7                                               
badc: 98        -         tya                          //  badc   98                                               
badd: 48        -         pha                          //  badd   48                                               
bade: 20 bd b5  -         jsr $b5bd                    //  bade   20 bd b5                                               
bae1: a9 9c     -         lda #$9c                     //  bae1   a9 9c                                                  
bae3: a0 00     -         ldy #$00                     //  bae3   a0 00                                                  
bae5: 20 fb b5  -         jsr FMULT                    //  bae5   20 fb b5                                               
bae8: 20 1b bb  -         jsr $bb1b                    //  bae8   20 1b bb                                               
baeb: 68        -         pla                          //  baeb   68                                               
baec: 4a        -         lsr                          //  baec   4a                                                 
baed: 90 0a     -         bcc $baf9                    //  baed   90 0a                                                  
baef: a5 ac     - NEGOP:  lda $ac                      //  baef   a5 ac                                                
baf1: f0 06     -         beq $baf9                    //  baf1   f0 06                                                  
baf3: a5 b0     -         lda $b0                      //  baf3   a5 b0                                                
baf5: 49 ff     -         eor #$ff                     //  baf5   49 ff                                                  
baf7: 85 b0     -         sta $b0                      //  baf7   85 b0                                                
baf9: 60        - lbaf9:  rts                          //  baf9   60                                               
bafa: 81 38     - CON_LOG_E:sta ($38,x)                   //  bafa   81 38                                                   
bafc: aa        -         tax                          //  bafc   aa                                               
bafd: 3b        -         .byte $3b                    //  bafd   3b         %00111011 ''                                                     
bafe: 06        - POLY_EXP:.byte	$06                          // bafe 06   
baff: 74 63 90 8c                                      -         .byte	$74,$63,$90,$8C              // baff 74 63 90 8C
bb03: 77 23 0c ab                                      -         .byte	$77,$23,$0C,$AB              // bb03 77 23 0C AB
bb07: 7a 1e 94 00                                      -         .byte	$7A,$1E,$94,$00              // bb07 7A 1E 94 00
bb0b: 7c 63 42 80                                      -         .byte	$7C,$63,$42,$80              // bb0b 7C 63 42 80
bb0f: 7e 75 fe d0                                      -         .byte	$7E,$75,$FE,$D0              // bb0f 7E 75 FE D0
bb13: 80 31 72 15                                      -         .byte	$80,$31,$72,$15              // bb13 80 31 72 15
bb17: 81 00 00 00                                      -         .byte	$81,$00,$00,$00              // bb17 81 00 00 00                                            
bb1b: a9 fa     - EXP:    lda #$fa                     //  bb1b   a9 fa                                                  
bb1d: a0 ba     -         ldy #$ba                     //  bb1d   a0 ba                                                  
bb1f: 20 fb b5  -         jsr FMULT                    //  bb1f   20 fb b5                                               
bb22: a5 b9     -         lda $b9                      //  bb22   a5 b9                                                
bb24: 69 50     -         adc #$50                     //  bb24   69 50                                                  
bb26: 90 03     -         bcc $bb2b                    //  bb26   90 03                                                  
bb28: 20 c2 b7  -         jsr $b7c2                    //  bb28   20 c2 b7                                               
bb2b: 85 a3     - lbb2b:  sta $a3                      //  bb2b   85 a3                                                
bb2d: 20 ae b7  -         jsr $b7ae                    //  bb2d   20 ae b7                                               
bb30: a5 ac     -         lda $ac                      //  bb30   a5 ac                                                
bb32: c9 88     -         cmp #$88                     //  bb32   c9 88                                                  
bb34: 90 03     -         bcc $bb39                    //  bb34   90 03                                                  
bb36: 20 90 b6  - lbb36:  jsr $b690                    //  bb36   20 90 b6                                               
bb39: 20 62 b8  - lbb39:  jsr $b862                    //  bb39   20 62 b8                                               
bb3c: a5 5b     -         lda $5b                      //  bb3c   a5 5b                                                
bb3e: 18        -         clc                          //  bb3e   18                                               
bb3f: 69 81     -         adc #$81                     //  bb3f   69 81                                                  
bb41: f0 f3     -         beq $bb36                    //  bb41   f0 f3                                                  
bb43: 38        -         sec                          //  bb43   38                                               
bb44: e9 01     -         sbc #$01                     //  bb44   e9 01                                                  
bb46: 48        -         pha                          //  bb46   48                                               
bb47: a2 04     -         ldx #$04                     //  bb47   a2 04                                                  
bb49: b5 b3     - lbb49:  lda $b3,x                    //  bb49   b5 b3                                                  
bb4b: b4 ac     -         ldy $ac,x                    //  bb4b   b4 ac                                                  
bb4d: 95 ac     -         sta $ac,x                    //  bb4d   95 ac                                                  
bb4f: 94 b3     -         sty $b3,x                    //  bb4f   94 b3                                                  
bb51: ca        -         dex                          //  bb51   ca                                               
bb52: 10 f5     -         bpl $bb49                    //  bb52   10 f5                                                  
bb54: a5 a3     -         lda $a3                      //  bb54   a5 a3                                                
bb56: 85 b9     -         sta $b9                      //  bb56   85 b9                                                
bb58: 20 58 b4  -         jsr $b458                    //  bb58   20 58 b4                                               
bb5b: 20 ef ba  -         jsr $baef                    //  bb5b   20 ef ba                                               
bb5e: a9 fe     -         lda #$fe                     //  bb5e   a9 fe                                                  
bb60: a0 ba     -         ldy #$ba                     //  bb60   a0 ba                                                  
bb62: 20 84 bb  -         jsr $bb84                    //  bb62   20 84 bb                                               
bb65: a9 00     -         lda #$00                     //  bb65   a9 00                                                  
bb67: 85 b8     -         sta $b8                      //  bb67   85 b8                                                
bb69: 68        -         pla                          //  bb69   68                                               
bb6a: 20 75 b6  -         jsr $b675                    //  bb6a   20 75 b6                                               
bb6d: 60        -         rts                          //  bb6d   60                                               
bb6e: 85 ba     - POLYNOMIAL_ODD:sta $ba                      //  bb6e   85 ba                                                
bb70: 84 bb     -         sty $bb                      //  bb70   84 bb                                                
bb72: 20 6e b7  -         jsr $b76e                    //  bb72   20 6e b7                                               
bb75: a9 a4     -         lda #$a4                     //  bb75   a9 a4                                                  
bb77: 20 fb b5  -         jsr FMULT                    //  bb77   20 fb b5                                               
bb7a: 20 88 bb  -         jsr $bb88                    //  bb7a   20 88 bb                                               
bb7d: a9 a4     -         lda #$a4                     //  bb7d   a9 a4                                                  
bb7f: a0 00     -         ldy #$00                     //  bb7f   a0 00                                                  
bb81: 4c fb b5  -         jmp FMULT                    //  bb81   4c fb b5                                               
bb84: 85 ba     - POLYNOMIAL:sta $ba                      //  bb84   85 ba                                                
bb86: 84 bb     -         sty $bb                      //  bb86   84 bb                                                
bb88: 20 6b b7  - SERMAIN:jsr $b76b                    //  bb88   20 6b b7                                               
bb8b: b1 ba     -         lda ($ba),y                   //  bb8b   b1 ba                                                   
bb8d: 85 b1     -         sta $b1                      //  bb8d   85 b1                                                
bb8f: a4 ba     -         ldy $ba                      //  bb8f   a4 ba                                                
bb91: c8        -         iny                          //  bb91   c8                                               
bb92: 98        -         tya                          //  bb92   98                                               
bb93: d0 02     -         bne $bb97                    //  bb93   d0 02                                                  
bb95: e6 bb     -         inc $bb                      //  bb95   e6 bb                                                
bb97: 85 ba     - lbb97:  sta $ba                      //  bb97   85 ba                                                
bb99: a4 bb     -         ldy $bb                      //  bb99   a4 bb                                                
bb9b: 20 fb b5  - lbb9b:  jsr FMULT                    //  bb9b   20 fb b5                                               
bb9e: a5 ba     -         lda $ba                      //  bb9e   a5 ba                                                
bba0: a4 bb     -         ldy $bb                      //  bba0   a4 bb                                                
bba2: 18        -         clc                          //  bba2   18                                               
bba3: 69 04     -         adc #$04                     //  bba3   69 04                                                  
bba5: 90 01     -         bcc $bba8                    //  bba5   90 01                                                  
bba7: c8        -         iny                          //  bba7   c8                                               
bba8: 85 ba     - lbba8:  sta $ba                      //  bba8   85 ba                                                
bbaa: 84 bb     -         sty $bb                      //  bbaa   84 bb                                                
bbac: 20 6c b4  -         jsr $b46c                    //  bbac   20 6c b4                                               
bbaf: a9 a8     -         lda #$a8                     //  bbaf   a9 a8                                                  
bbb1: a0 00     -         ldy #$00                     //  bbb1   a0 00                                                  
bbb3: c6 b1     -         dec $b1                      //  bbb3   c6 b1                                                
bbb5: d0 e4     -         bne $bb9b                    //  bbb5   d0 e4                                                  
bbb7: 60        - lbbb7:  rts                          //  bbb7   60                                               
bbb8: 98        - CONRND1:tya                          //  bbb8   98                                               
bbb9: 35 44     -         and $44,x                    //  bbb9   35 44                                                  
bbbb: 7a        -         .byte $7a                    //  bbbb   7a         %01111010 'z'                                                     
bbbc: 68        - CONRND2:pla                          //  bbbc   68                                               
bbbd: 28        -         plp                          //  bbbd   28                                               
bbbe: b1 46     -         lda ($46),y                   //  bbbe   b1 46                                                   
bbc0: 20 ca b7  - RND:    jsr $b7ca                    //  bbc0   20 ca b7                                               
bbc3: aa        -         tax                          //  bbc3   aa                                               
bbc4: 30 18     -         bmi $bbde                    //  bbc4   30 18                                                  
bbc6: a9 d4     -         lda #$d4                     //  bbc6   a9 d4                                                  
bbc8: a0 00     -         ldy #$00                     //  bbc8   a0 00                                                  
bbca: 20 4b b7  -         jsr $b74b                    //  bbca   20 4b b7                                               
bbcd: 8a        -         txa                          //  bbcd   8a                                               
bbce: f0 e7     -         beq $bbb7                    //  bbce   f0 e7                                                  
bbd0: a9 b8     -         lda #$b8                     //  bbd0   a9 b8                                                  
bbd2: a0 bb     -         ldy #$bb                     //  bbd2   a0 bb                                                  
bbd4: 20 fb b5  -         jsr FMULT                    //  bbd4   20 fb b5                                               
bbd7: a9 bc     -         lda #$bc                     //  bbd7   a9 bc                                                  
bbd9: a0 bb     -         ldy #$bb                     //  bbd9   a0 bb                                                  
bbdb: 20 6c b4  -         jsr $b46c                    //  bbdb   20 6c b4                                               
bbde: a6 af     - lbbde:  ldx $af                      //  bbde   a6 af                                                
bbe0: a5 ad     -         lda $ad                      //  bbe0   a5 ad                                                
bbe2: 85 af     -         sta $af                      //  bbe2   85 af                                                
bbe4: 86 ad     -         stx $ad                      //  bbe4   86 ad                                                
bbe6: a9 00     -         lda #$00                     //  bbe6   a9 00                                                  
bbe8: 85 b0     -         sta $b0                      //  bbe8   85 b0                                                
bbea: a5 ac     -         lda $ac                      //  bbea   a5 ac                                                
bbec: 85 b9     -         sta $b9                      //  bbec   85 b9                                                
bbee: a9 80     -         lda #$80                     //  bbee   a9 80                                                  
bbf0: 85 ac     -         sta $ac                      //  bbf0   85 ac                                                
bbf2: 20 d5 b4  -         jsr $b4d5                    //  bbf2   20 d5 b4                                               
bbf5: a2 d4     -         ldx #$d4                     //  bbf5   a2 d4                                                  
bbf7: a0 00     -         ldy #$00                     //  bbf7   a0 00                                                  
bbf9: 4c 78 b7  - GOMOVMF:jmp STORE_FAC_AT_YX_ROUNDED                    //  bbf9   4c 78 b7                                               
bbfc: a9 78     - COS:    lda #$78                     //  bbfc   a9 78                                                  
bbfe: a0 bc     -         ldy #$bc                     //  bbfe   a0 bc                                                  
bc00: 20 6c b4  -         jsr $b46c                    //  bc00   20 6c b4                                               
bc03: 20 ab b7  - SIN:    jsr $b7ab                    //  bc03   20 ab b7                                               
bc06: a9 7c     -         lda #$7c                     //  bc06   a9 7c                                                  
bc08: a0 bc     -         ldy #$bc                     //  bc08   a0 bc                                                  
bc0a: a6 b7     -         ldx $b7                      //  bc0a   a6 b7                                                
bc0c: 20 c2 b6  -         jsr $b6c2                    //  bc0c   20 c2 b6                                               
bc0f: 20 ab b7  -         jsr $b7ab                    //  bc0f   20 ab b7                                               
bc12: 20 62 b8  -         jsr $b862                    //  bc12   20 62 b8                                               
bc15: a9 00     -         lda #$00                     //  bc15   a9 00                                                  
bc17: 85 b8     -         sta $b8                      //  bc17   85 b8                                                
bc19: 20 58 b4  -         jsr $b458                    //  bc19   20 58 b4                                               
bc1c: a9 80     -         lda #$80                     //  bc1c   a9 80                                                  
bc1e: a0 bc     -         ldy #$bc                     //  bc1e   a0 bc                                                  
bc20: 20 55 b4  -         jsr $b455                    //  bc20   20 55 b4                                               
bc23: a5 b0     -         lda $b0                      //  bc23   a5 b0                                                
bc25: 48        -         pha                          //  bc25   48                                               
bc26: 10 0d     -         bpl $bc35                    //  bc26   10 0d                                                  
bc28: 20 4e b4  -         jsr $b44e                    //  bc28   20 4e b4                                               
bc2b: a5 b0     -         lda $b0                      //  bc2b   a5 b0                                                
bc2d: 30 09     -         bmi $bc38                    //  bc2d   30 09                                                  
bc2f: a5 63     -         lda $63                      //  bc2f   a5 63                                                
bc31: 49 ff     -         eor #$ff                     //  bc31   49 ff                                                  
bc33: 85 63     -         sta $63                      //  bc33   85 63                                                
bc35: 20 ef ba  - SIN1:   jsr $baef                    //  bc35   20 ef ba                                               
bc38: a9 80     - L3F5B:  lda #$80                     //  bc38   a9 80                                                  
bc3a: a0 bc     -         ldy #$bc                     //  bc3a   a0 bc                                                  
bc3c: 20 6c b4  -         jsr $b46c                    //  bc3c   20 6c b4                                               
bc3f: 68        -         pla                          //  bc3f   68                                               
bc40: 10 03     -         bpl $bc45                    //  bc40   10 03                                                  
bc42: 20 ef ba  -         jsr $baef                    //  bc42   20 ef ba                                               
bc45: a9 84     - lbc45:  lda #$84                     //  bc45   a9 84                                                  
bc47: a0 bc     -         ldy #$bc                     //  bc47   a0 bc                                                  
bc49: 4c 6e bb  -         jmp POLYNOMIAL_ODD                    //  bc49   4c 6e bb                                               
bc4c: 20 6e b7  - TAN:    jsr $b76e                    //  bc4c   20 6e b7                                               
bc4f: a9 00     -         lda #$00                     //  bc4f   a9 00                                                  
bc51: 85 63     -         sta $63                      //  bc51   85 63                                                
bc53: 20 03 bc  -         jsr $bc03                    //  bc53   20 03 bc                                               
bc56: a2 9c     -         ldx #$9c                     //  bc56   a2 9c                                                  
bc58: a0 00     -         ldy #$00                     //  bc58   a0 00                                                  
bc5a: 20 f9 bb  -         jsr $bbf9                    //  bc5a   20 f9 bb                                               
bc5d: a9 a4     -         lda #$a4                     //  bc5d   a9 a4                                                  
bc5f: a0 00     -         ldy #$00                     //  bc5f   a0 00                                                  
bc61: 20 4b b7  -         jsr $b74b                    //  bc61   20 4b b7                                               
bc64: a9 00     -         lda #$00                     //  bc64   a9 00                                                  
bc66: 85 b0     -         sta $b0                      //  bc66   85 b0                                                
bc68: a5 63     -         lda $63                      //  bc68   a5 63                                                
bc6a: 20 74 bc  -         jsr $bc74                    //  bc6a   20 74 bc                                               
bc6d: a9 9c     -         lda #$9c                     //  bc6d   a9 9c                                                  
bc6f: a0 00     -         ldy #$00                     //  bc6f   a0 00                                                  
bc71: 4c ca b6  -         jmp FDIV                    //  bc71   4c ca b6                                               
bc74: 48        - TAN1:   pha                          //  bc74   48                                               
bc75: 4c 35 bc  -         jmp $bc35                    //  bc75   4c 35 bc                                               
bc78: 81 49     - CON_PI_HALF:sta ($49,x)                   //  bc78   81 49                                                   
bc7a: 0f        -         .byte $0f                    //  bc7a   0f         %00001111                                                     
bc7b: db        -         .byte $db                    //  bc7b   db         %11011011                                                     
bc7c: 83        - CON_PI_DOUB:.byte $83                    //  bc7c   83         %10000011                                                     
bc7d: 49 0f     -         eor #$0f                     //  bc7d   49 0f                                                  
bc7f: db        -         .byte $db                    //  bc7f   db         %11011011                                                     
bc80: 7f        - QUARTER:.byte $7f                    //  bc80   7f         %01111111                                                     
bc81: 00        -         brk                          //  bc81   00                                               
bc82: 00        -         brk                          //  bc82   00                                               
bc83: 00        -         brk                          //  bc83   00                                               
bc84: 04        - POLY_SIN:.byte $04                    //  bc84   04         %00000100                                                     
bc85: 86 1e     -         stx $1e                      //  bc85   86 1e                                                
bc87: d7        -         .byte $d7                    //  bc87   d7         %11010111                                                     
bc88: fb        -         .byte $fb                    //  bc88   fb         %11111011                                                     
bc89: 87        -         .byte $87                    //  bc89   87         %10000111                                                     
bc8a: 99 26 65  -         sta $6526,y                   //  bc8a   99 26 65                                                 
bc8d: 87        -         .byte $87                    //  bc8d   87         %10000111                                                     
bc8e: 23        -         .byte $23                    //  bc8e   23         %00100011 '#'                                                     
bc8f: 34        -         .byte $34                    //  bc8f   34         %00110100 '4'                                                     
bc90: 58        -         cli                          //  bc90   58                                               
bc91: 86 a5     -         stx $a5                      //  bc91   86 a5                                                
bc93: 5d e1 83  -         eor $83e1,x                   //  bc93   5d e1 83                                                 
bc96: 49 0f     -         eor #$0f                     //  bc96   49 0f                                                  
bc98: db        -         .byte $db                    //  bc98   db         %11011011                                                     
bc99: a5 b0     - ATN:    lda $b0                      //  bc99   a5 b0                                                
bc9b: 48        -         pha                          //  bc9b   48                                               
bc9c: 10 03     -         bpl $bca1                    //  bc9c   10 03                                                  
bc9e: 20 ef ba  -         jsr $baef                    //  bc9e   20 ef ba                                               
bca1: a5 ac     - lbca1:  lda $ac                      //  bca1   a5 ac                                                
bca3: 48        -         pha                          //  bca3   48                                               
bca4: c9 81     -         cmp #$81                     //  bca4   c9 81                                                  
bca6: 90 07     -         bcc $bcaf                    //  bca6   90 07                                                  
bca8: a9 9c     -         lda #$9c                     //  bca8   a9 9c                                                  
bcaa: a0 b5     -         ldy #$b5                     //  bcaa   a0 b5                                                  
bcac: 20 ca b6  -         jsr FDIV                    //  bcac   20 ca b6                                               
bcaf: a9 c9     - lbcaf:  lda #$c9                     //  bcaf   a9 c9                                                  
bcb1: a0 bc     -         ldy #$bc                     //  bcb1   a0 bc                                                  
bcb3: 20 6e bb  -         jsr POLYNOMIAL_ODD                    //  bcb3   20 6e bb                                               
bcb6: 68        -         pla                          //  bcb6   68                                               
bcb7: c9 81     -         cmp #$81                     //  bcb7   c9 81                                                  
bcb9: 90 07     -         bcc $bcc2                    //  bcb9   90 07                                                  
bcbb: a9 78     -         lda #$78                     //  bcbb   a9 78                                                  
bcbd: a0 bc     -         ldy #$bc                     //  bcbd   a0 bc                                                  
bcbf: 20 55 b4  -         jsr $b455                    //  bcbf   20 55 b4                                               
bcc2: 68        - lbcc2:  pla                          //  bcc2   68                                               
bcc3: 10 03     -         bpl $bcc8                    //  bcc3   10 03                                                  
bcc5: 4c ef ba  -         jmp $baef                    //  bcc5   4c ef ba                                               
bcc8: 60        - lbcc8:  rts                          //  bcc8   60                                               
bcc9: 08        - POLY_ATN:php                          //  bcc9   08                                               
bcca: 78        -         sei                          //  bcca   78                                               
bccb: 3a        -         .byte $3a                    //  bccb   3a         %00111010 ':'                                                     
bccc: c5 37     -         cmp $37                      //  bccc   c5 37                                                
bcce: 7b        -         .byte $7b                    //  bcce   7b         %01111011 '{'                                                     
bccf: 83        -         .byte $83                    //  bccf   83         %10000011                                                     
bcd0: a2 5c     -         ldx #$5c                     //  bcd0   a2 5c                                                  
bcd2: 7c        -         .byte $7c                    //  bcd2   7c         %01111100 '|'                                                     
bcd3: 2e dd 4d  -         rol $4ddd                    //  bcd3   2e dd 4d                                               
bcd6: 7d 99 b0  -         adc $b099,x                   //  bcd6   7d 99 b0                                                 
bcd9: 1e 7d 59  -         asl $597d,x                   //  bcd9   1e 7d 59                                                 
bcdc: ed 24 7e  -         sbc $7e24                    //  bcdc   ed 24 7e                                               
bcdf: 91 72     -         sta ($72),y                   //  bcdf   91 72                                                   
bce1: 00        -         brk                          //  bce1   00                                               
bce2: 7e 4c b9  -         ror $b94c,x                   //  bce2   7e 4c b9                                                 
bce5: 73        -         .byte $73                    //  bce5   73         %01110011 's'                                                     
bce6: 7f        -         .byte $7f                    //  bce6   7f         %01111111                                                     
bce7: aa        -         tax                          //  bce7   aa                                               
bce8: aa        -         tax                          //  bce8   aa                                               
bce9: 53        -         .byte $53                    //  bce9   53         %01010011 'S'                                                     
bcea: 81 00     -         sta ($00,x)                   //  bcea   81 00                                                   
bcec: 00        -         brk                          //  bcec   00                                               
bced: 00        -         brk                          //  bced   00                                               
bcee: e6 c3     - GENERIC_CHRGET:inc.zp $c3                      //  bcee   e6 c3                                                
bcf0: d0 02     -         bne $bcf4                    //  bcf0   d0 02                                                  
bcf2: e6 c4     -         inc.zp $c4                      //  bcf2   e6 c4                                                
bcf4: ad 60 ea  - GENERIC_CHRGOT,GENERIC_TXTPTR-1:lda $ea60                    //  bcf4   ad 60 ea                                               
bcf7: c9 3a     -         cmp #$3a                     //  bcf7   c9 3a                                                  
bcf9: b0 0a     -         bcs $bd05                    //  bcf9   b0 0a                                                  
bcfb: c9 20     - GENERIC_CHRGOT2:cmp #$20                     //  bcfb   c9 20                                                  
bcfd: f0 ef     -         beq $bcee                    //  bcfd   f0 ef                                                  
bcff: 38        -         sec                          //  bcff   38                                               
bd00: e9 30     -         sbc #$30                     //  bd00   e9 30                                                  
bd02: 38        -         sec                          //  bd02   38                                               
bd03: e9 d0     -         sbc #$d0                     //  bd03   e9 d0                                                  
bd05: 60        - lbd05:  rts                          //  bd05   60                                               
bd06: 80        - GENERIC_RNDSEED:.byte $80                    //  bd06   80         %10000000                                                     
bd07: 4f        -         .byte $4f                    //  bd07   4f         %01001111 'O'                                                     
bd08: c7        -         .byte $c7                    //  bd08   c7         %11000111                                                     
bd09: 52        -         .byte $52                    //  bd09   52         %01010010 'R'                                                     
bd0a: a9 4e     - GENERIC_CHRGET_END,PR_WRITTEN_BY:lda #$4e                     //  bd0a   a9 4e                                                  
bd0c: a0 be     -         ldy #$be                     //  bd0c   a0 be                                                  
bd0e: 20 c3 a8  -         jsr $a8c3                    //  bd0e   20 c3 a8                                               
bd11: a2 ff     - COLD_START:ldx #$ff                     //  bd11   a2 ff                                                  
bd13: 86 88     -         stx $88                      //  bd13   86 88                                                
bd15: 9a        -         txs                          //  bd15   9a                                               
bd16: a9 11     -         lda #$11                     //  bd16   a9 11                                                  
bd18: a0 bd     -         ldy #$bd                     //  bd18   a0 bd                                                  
bd1a: 85 01     -         sta $01                      //  bd1a   85 01                                                
bd1c: 84 02     -         sty $02                      //  bd1c   84 02                                                
bd1e: 85 04     -         sta $04                      //  bd1e   85 04                                                
bd20: 84 05     -         sty $05                      //  bd20   84 05                                                
bd22: a9 05     -         lda #$05                     //  bd22   a9 05                                                  
bd24: a0 ae     -         ldy #$ae                     //  bd24   a0 ae                                                  
bd26: 85 06     -         sta $06                      //  bd26   85 06                                                
bd28: 84 07     -         sty $07                      //  bd28   84 07                                                
bd2a: a9 c1     -         lda #$c1                     //  bd2a   a9 c1                                                  
bd2c: a0 af     -         ldy #$af                     //  bd2c   a0 af                                                  
bd2e: 85 08     -         sta $08                      //  bd2e   85 08                                                
bd30: 84 09     -         sty $09                      //  bd30   84 09                                                
bd32: a9 4c     -         lda #$4c                     //  bd32   a9 4c                                                  
bd34: 85 00     -         sta $00                      //  bd34   85 00                                                
bd36: 85 03     -         sta $03                      //  bd36   85 03                                                
bd38: 85 a1     -         sta $a1                      //  bd38   85 a1                                                
bd3a: 85 0a     -         sta $0a                      //  bd3a   85 0a                                                
bd3c: a9 88     -         lda #$88                     //  bd3c   a9 88                                                  
bd3e: a0 ae     -         ldy #$ae                     //  bd3e   a0 ae                                                  
bd40: 85 0b     -         sta $0b                      //  bd40   85 0b                                                
bd42: 84 0c     -         sty $0c                      //  bd42   84 0c                                                
bd44: a9 48     -         lda #$48                     //  bd44   a9 48                                                  
bd46: 85 0f     -         sta $0f                      //  bd46   85 0f                                                
bd48: a9 38     -         lda #$38                     //  bd48   a9 38                                                  
bd4a: 85 10     -         sta $10                      //  bd4a   85 10                                                
bd4c: a2 1c     -         ldx #$1c                     //  bd4c   a2 1c                                                  
bd4e: bd ed bc  - lbd4e:  lda $bced,x                   //  bd4e   bd ed bc                                                 
bd51: 95 bb     -         sta $bb,x                    //  bd51   95 bb                                                  
bd53: ca        -         dex                          //  bd53   ca                                               
bd54: d0 f8     -         bne $bd4e                    //  bd54   d0 f8                                                  
bd56: 8a        -         txa                          //  bd56   8a                                               
bd57: 85 b2     -         sta $b2                      //  bd57   85 b2                                                
bd59: 85 67     -         sta $67                      //  bd59   85 67                                                
bd5b: 85 0d     -         sta $0d                      //  bd5b   85 0d                                                
bd5d: 85 0e     -         sta $0e                      //  bd5d   85 0e                                                
bd5f: 48        -         pha                          //  bd5f   48                                               
bd60: 85 64     -         sta $64                      //  bd60   85 64                                                
bd62: a9 03     -         lda #$03                     //  bd62   a9 03                                                  
bd64: 85 a0     -         sta $a0                      //  bd64   85 a0                                                
bd66: a9 2c     -         lda #$2c                     //  bd66   a9 2c                                                  
bd68: 85 12     -         sta $12                      //  bd68   85 12                                                
bd6a: 20 6c a8  -         jsr $a86c                    //  bd6a   20 6c a8                                               
bd6d: a2 68     -         ldx #$68                     //  bd6d   a2 68                                                  
bd6f: 86 65     -         stx $65                      //  bd6f   86 65                                                
bd71: a9 72     -         lda #$72                     //  bd71   a9 72                                                  
bd73: a0 be     -         ldy #$be                     //  bd73   a0 be                                                  
bd75: 20 c3 a8  -         jsr $a8c3                    //  bd75   20 c3 a8                                               
bd78: 20 46 a9  -         jsr $a946                    //  bd78   20 46 a9                                               
bd7b: 86 c3     -         stx.zp $c3                      //  bd7b   86 c3                                                
bd7d: 84 c4     -         sty.zp $c4                      //  bd7d   84 c4                                                
bd7f: 20 bc 00  -         jsr $00bc                    //  bd7f   20 bc 00                                               
bd82: c9 41     -         cmp #$41                     //  bd82   c9 41                                                  
bd84: f0 84     -         beq $bd0a                    //  bd84   f0 84                                                  
bd86: a8        -         tay                          //  bd86   a8                                               
bd87: d0 21     -         bne $bdaa                    //  bd87   d0 21                                                  
bd89: a9 00     -         lda #$00                     //  bd89   a9 00                                                  
bd8b: a0 03     -         ldy #$03                     //  bd8b   a0 03                                                  
bd8d: 85 11     -         sta $11                      //  bd8d   85 11                                                
bd8f: 84 12     -         sty $12                      //  bd8f   84 12                                                
bd91: a0 00     -         ldy #$00                     //  bd91   a0 00                                                  
bd93: e6 11     - lbd93:  inc $11                      //  bd93   e6 11                                                
bd95: d0 02     -         bne $bd99                    //  bd95   d0 02                                                  
bd97: e6 12     -         inc $12                      //  bd97   e6 12                                                
bd99: a9 92     - lbd99:  lda #$92                     //  bd99   a9 92                                                  
bd9b: 91 11     -         sta ($11),y                   //  bd9b   91 11                                                   
bd9d: d1 11     -         cmp ($11),y                   //  bd9d   d1 11                                                   
bd9f: d0 15     -         bne $bdb6                    //  bd9f   d0 15                                                  
bda1: 0a        -         asl                          //  bda1   0a                                                 
bda2: 91 11     -         sta ($11),y                   //  bda2   91 11                                                   
bda4: d1 11     -         cmp ($11),y                   //  bda4   d1 11                                                   
bda6: f0 eb     -         beq $bd93                    //  bda6   f0 eb                                                  
bda8: d0 0c     -         bne $bdb6                    //  bda8   d0 0c                                                  
bdaa: 20 c2 00  - lbdaa:  jsr $00c2                    //  bdaa   20 c2 00                                               
bdad: 20 7f a7  -         jsr $a77f                    //  bdad   20 7f a7                                               
bdb0: a8        -         tay                          //  bdb0   a8                                               
bdb1: f0 03     -         beq $bdb6                    //  bdb1   f0 03                                                  
bdb3: 4c 0c ac  -         jmp $ac0c                    //  bdb3   4c 0c ac                                               
bdb6: a5 11     - lbdb6:  lda $11                      //  bdb6   a5 11                                                
bdb8: a4 12     -         ldy $12                      //  bdb8   a4 12                                                
bdba: 85 85     -         sta $85                      //  bdba   85 85                                                
bdbc: 84 86     -         sty $86                      //  bdbc   84 86                                                
bdbe: 85 81     -         sta $81                      //  bdbe   85 81                                                
bdc0: 84 82     -         sty $82                      //  bdc0   84 82                                                
bdc2: a9 7e     - lbdc2:  lda #$7e                     //  bdc2   a9 7e                                                  
bdc4: a0 be     -         ldy #$be                     //  bdc4   a0 be                                                  
bdc6: 20 c3 a8  -         jsr $a8c3                    //  bdc6   20 c3 a8                                               
bdc9: 20 46 a9  -         jsr $a946                    //  bdc9   20 46 a9                                               
bdcc: 86 c3     -         stx.zp $c3                      //  bdcc   86 c3                                                
bdce: 84 c4     -         sty.zp $c4                      //  bdce   84 c4                                                
bdd0: 20 bc 00  -         jsr $00bc                    //  bdd0   20 bc 00                                               
bdd3: a8        -         tay                          //  bdd3   a8                                               
bdd4: f0 1c     -         beq $bdf2                    //  bdd4   f0 1c                                                  
bdd6: 20 7f a7  -         jsr $a77f                    //  bdd6   20 7f a7                                               
bdd9: a5 12     -         lda $12                      //  bdd9   a5 12                                                
bddb: d0 e5     -         bne $bdc2                    //  bddb   d0 e5                                                  
bddd: a5 11     -         lda $11                      //  bddd   a5 11                                                
bddf: c9 10     -         cmp #$10                     //  bddf   c9 10                                                  
bde1: 90 df     -         bcc $bdc2                    //  bde1   90 df                                                  
bde3: 85 0f     -         sta $0f                      //  bde3   85 0f                                                
bde5: e9 0e     - lbde5:  sbc #$0e                     //  bde5   e9 0e                                                  
bde7: b0 fc     -         bcs $bde5                    //  bde7   b0 fc                                                  
bde9: 49 ff     -         eor #$ff                     //  bde9   49 ff                                                  
bdeb: e9 0c     -         sbc #$0c                     //  bdeb   e9 0c                                                  
bded: 18        -         clc                          //  bded   18                                               
bdee: 65 0f     -         adc $0f                      //  bdee   65 0f                                                
bdf0: 85 10     -         sta $10                      //  bdf0   85 10                                                
bdf2: a2 00     - lbdf2:  ldx #$00                     //  bdf2   a2 00                                                  
bdf4: a0 03     -         ldy #$03                     //  bdf4   a0 03                                                  
bdf6: 86 79     -         stx $79                      //  bdf6   86 79                                                
bdf8: 84 7a     -         sty $7a                      //  bdf8   84 7a                                                
bdfa: a0 00     -         ldy #$00                     //  bdfa   a0 00                                                  
bdfc: 98        -         tya                          //  bdfc   98                                               
bdfd: 91 79     -         sta ($79),y                   //  bdfd   91 79                                                   
bdff: e6 79     -         inc $79                      //  bdff   e6 79                                                
be01: d0 02     -         bne $be05                    //  be01   d0 02                                                  
be03: e6 7a     -         inc $7a                      //  be03   e6 7a                                                
be05: a5 79     - lbe05:  lda $79                      //  be05   a5 79                                                
be07: a4 7a     -         ldy $7a                      //  be07   a4 7a                                                
be09: 20 1f a2  -         jsr $a21f                    //  be09   20 1f a2                                               
be0c: 20 6c a8  -         jsr $a86c                    //  be0c   20 6c a8                                               
be0f: a5 85     -         lda $85                      //  be0f   a5 85                                                
be11: 38        -         sec                          //  be11   38                                               
be12: e5 79     -         sbc $79                      //  be12   e5 79                                                
be14: aa        -         tax                          //  be14   aa                                               
be15: a5 86     -         lda $86                      //  be15   a5 86                                                
be17: e5 7a     -         sbc $7a                      //  be17   e5 7a                                                
be19: 20 5e b9  -         jsr $b95e                    //  be19   20 5e b9                                               
be1c: a9 8d     -         lda #$8d                     //  be1c   a9 8d                                                  
be1e: a0 be     -         ldy #$be                     //  be1e   a0 be                                                  
be20: 20 c3 a8  -         jsr $a8c3                    //  be20   20 c3 a8                                               
be23: a9 c3     -         lda #$c3                     //  be23   a9 c3                                                  
be25: a0 a8     -         ldy #$a8                     //  be25   a0 a8                                                  
be27: 85 04     -         sta $04                      //  be27   85 04                                                
be29: 84 05     -         sty $05                      //  be29   84 05                                                
be2b: 20 63 a4  -         jsr $a463                    //  be2b   20 63 a4                                               
be2e: a9 74     -         lda #$74                     //  be2e   a9 74                                                  
be30: a0 a2     -         ldy #$a2                     //  be30   a0 a2                                                  
be32: 85 01     -         sta $01                      //  be32   85 01                                                
be34: 84 02     -         sty $02                      //  be34   84 02                                                
be36: 6c 01 00  -         jmp ($0001)                   //  be36   6c 01 00                                                 
be39: 57        -         .byte $57                    //  be39   57         %01010111 'W'                                                     
be3a: 41 4e     -         eor ($4e,x)                   //  be3a   41 4e                                                   
be3c: 54        -         .byte $54                    //  be3c   54         %01010100 'T'                                                     
be3d: 20 53 49  -         jsr $4953                    //  be3d   20 53 49                                               
be40: 4e 2d 43  -         lsr $432d                    //  be40   4e 2d 43                                               
be43: 4f        -         .byte $4f                    //  be43   4f         %01001111 'O'                                                     
be44: 53        -         .byte $53                    //  be44   53         %01010011 'S'                                                     
be45: 2d 54 41  -         and $4154                    //  be45   2d 54 41                                               
be48: 4e 2d 41  -         lsr $412d                    //  be48   4e 2d 41                                               
be4b: 54        -         .byte $54                    //  be4b   54         %01010100 'T'                                                     
be4c: 4e 00 0d  -         lsr $0d00                    //  be4c   4e 00 0d                                               
be4f: 0a        -         asl                          //  be4f   0a                                                 
be50: 0c        -         .byte $0c                    //  be50   0c         %00001100                                                     
be51: 54        -         .byte $54                    //  be51   54         %01010100 'T'                                                     
be52: 68        -         pla                          //  be52   68                                               
be53: 69 73     -         adc #$73                     //  be53   69 73                                                  
be55: 20 69 73  -         jsr $7369                    //  be55   20 69 73                                               
be58: 20 74 68  -         jsr $6874                    //  be58   20 74 68                                               
be5b: 65 20     -         adc $20                      //  be5b   65 20                                                
be5d: 43        -         .byte $43                    //  be5d   43         %01000011 'C'                                                     
be5e: 4f        -         .byte $4f                    //  be5e   4f         %01001111 'O'                                                     
be5f: 4d 50 55  -         eor $5550                    //  be5f   4d 50 55                                               
be62: 4b        -         .byte $4b                    //  be62   4b         %01001011 'K'                                                     
be63: 49 54     -         eor #$54                     //  be63   49 54                                                  
be65: 20 55 4b  -         jsr $4b55                    //  be65   20 55 4b                                               
be68: 31 30     -         and ($30),y                   //  be68   31 30                                                   
be6a: 31 20     -         and ($20),y                   //  be6a   31 20                                                   
be6c: 0c        -         .byte $0c                    //  be6c   0c         %00001100                                                     
be6d: 20 20 0d  -         jsr $0d20                    //  be6d   20 20 0d                                               
be70: 0a        -         asl                          //  be70   0a                                                 
be71: 00        -         brk                          //  be71   00                                               
be72: 4d 45 4d  -         eor $4d45                    //  be72   4d 45 4d                                               
be75: 4f        -         .byte $4f                    //  be75   4f         %01001111 'O'                                                     
be76: 52        -         .byte $52                    //  be76   52         %01010010 'R'                                                     
be77: 59 20 53  -         eor $5320,y                   //  be77   59 20 53                                                 
be7a: 49 5a     -         eor #$5a                     //  be7a   49 5a                                                  
be7c: 45 00     -         eor $00                      //  be7c   45 00                                                
be7e: 54        -         .byte $54                    //  be7e   54         %01010100 'T'                                                     
be7f: 45 52     -         eor $52                      //  be7f   45 52                                                
be81: 4d 49 4e  -         eor $4e49                    //  be81   4d 49 4e                                               
be84: 41 4c     -         eor ($4c,x)                   //  be84   41 4c                                                   
be86: 20 57 49  -         jsr $4957                    //  be86   20 57 49                                               
be89: 44        -         .byte $44                    //  be89   44         %01000100 'D'                                                     
be8a: 54        -         .byte $54                    //  be8a   54         %01010100 'T'                                                     
be8b: 48        -         pha                          //  be8b   48                                               
be8c: 00        -         brk                          //  be8c   00                                               
be8d: 20 42 59  -         jsr $5942                    //  be8d   20 42 59                                               
be90: 54        -         .byte $54                    //  be90   54         %01010100 'T'                                                     
be91: 45 53     -         eor $53                      //  be91   45 53                                                
be93: 20 46 52  -         jsr $5246                    //  be93   20 46 52                                               
be96: 45 45     -         eor $45                      //  be96   45 45                                                
be98: 0d 0a 0d  -         ora $0d0a                    //  be98   0d 0a 0d                                               
be9b: 0a        -         asl                          //  be9b   0a                                                 
be9c: 43        -         .byte $43                    //  be9c   43         %01000011 'C'                                                     
be9d: 20 4f 20  -         jsr $204f                    //  be9d   20 4f 20                                               
bea0: 4d 20 50  -         eor $5020                    //  bea0   4d 20 50                                               
bea3: 20 55 20  -         jsr $2055                    //  bea3   20 55 20                                               
bea6: 4b        -         .byte $4b                    //  bea6   4b         %01001011 'K'                                                     
bea7: 20 49 20  -         jsr $2049                    //  bea7   20 49 20                                               
beaa: 54        -         .byte $54                    //  beaa   54         %01010100 'T'                                                     
beab: 20 20 55  -         jsr $5520                    //  beab   20 20 55                                               
beae: 20 4b 20  -         jsr $204b                    //  beae   20 4b 20                                               
beb1: 31 20     -         and ($20),y                   //  beb1   31 20                                                   
beb3: 30 20     -         bmi $bed5                    //  beb3   30 20                                                  
beb5: 31 0d     -         and ($0d),y                   //  beb5   31 0d                                                   
beb7: 0a        -         asl                          //  beb7   0a                                                 
beb8: 0a        -         asl                          //  beb8   0a                                                 
beb9: 50 65     -         bvc $bf20                    //  beb9   50 65                                                  
bebb: 72        -         .byte $72                    //  bebb   72         %01110010 'r'                                                     
bebc: 73        -         .byte $73                    //  bebc   73         %01110011 's'                                                     
bebd: 6f        -         .byte $6f                    //  bebd   6f         %01101111 'o'                                                     
bebe: 6e 61 6c  -         ror $6c61                    //  bebe   6e 61 6c                                               
bec1: 20 43 6f  -         jsr $6f43                    //  bec1   20 43 6f                                               
bec4: 6d 70 75  -         adc $7570                    //  bec4   6d 70 75                                               
bec7: 74        -         .byte $74                    //  bec7   74         %01110100 't'                                                     
bec8: 65 72     -         adc $72                      //  bec8   65 72                                                
beca: 0d 0a 0a  -         ora $0a0a                    //  beca   0d 0a 0a                                               
becd: 38        -         sec                          //  becd   38                                               
bece: 4b        -         .byte $4b                    //  bece   4b         %01001011 'K'                                                     
becf: 20 42 61  -         jsr $6142                    //  becf   20 42 61                                               
bed2: 73        -         .byte $73                    //  bed2   73         %01110011 's'                                                     
bed3: 69 63     -         adc #$63                     //  bed3   69 63                                                  
bed5: 20 43 6f  - lbed5:  jsr $6f43                    //  bed5   20 43 6f                                               
bed8: 70 79     -         bvs $bf53                    //  bed8   70 79                                                  
beda: 72        -         .byte $72                    //  beda   72         %01110010 'r'                                                     
bedb: 69 67     -         adc #$67                     //  bedb   69 67                                                  
bedd: 68        -         pla                          //  bedd   68                                               
bede: 74        -         .byte $74                    //  bede   74         %01110100 't'                                                     
bedf: 31 39     -         and ($39),y                   //  bedf   31 39                                                   
bee1: 37        -         .byte $37                    //  bee1   37         %00110111 '7'                                                                                            
bee2: 39 00 ad  -         and $ad00,y                   //  bee2   39 00 ad
bee5: 05 bf     -         ora $bf                      //  bee5   05 bf                                                                                       
bee7: 4a        -         lsr                          //  bee7   4a                                                                                        
bee8: 90 fa     -         bcc $bee4                    //  bee8   90 fa                                                                                         
beea: ad 03 fb  -         lda $fb03                    //  beea   ad 03 fb                                                                                      
beed: 8d 07 fb  -         sta $fb07                    //  beed   8d 07 fb                                                                                      
bef0: 29 7f     -         and #$7f                     //  bef0   29 7f                                                                                         
bef2: 60        -         rts                          //  bef2   60                                                                                      
bef3: 48        -         pha                          //  bef3   48                                                                                      
bef4: ad 05 fb  - lbef4:  lda $fb05                    //  bef4   ad 05 fb                                                                                      
bef7: 10 fb     -         bpl $bef4                    //  bef7   10 fb                                                                                         
bef9: 68        -         pla                          //  bef9   68                                                                                      
befa: 8d 04 fb  -         sta $fb04                    //  befa   8d 04 fb                                                                                      
befd: 60        -         rts                          //  befd   60                                                                                      
befe: ad 06 fb  -         lda $fb06                    //  befe   ad 06 fb                                                                                      
bf01: a9 ff     -         lda #$ff                     //  bf01   a9 ff                                                                                         
bf03: 8d 05 fb  -         sta $fb05                    //  bf03   8d 05 fb                                                                                      
bf06: 60        -         rts                          //  bf06   60                                                                                      
bf07: ad 00 fc  - lbf07:  lda $fc00                    //  bf07   ad 00 fc                                                                                      
bf0a: 4a        -         lsr                          //  bf0a   4a                                                                                        
bf0b: 90 fa     -         bcc $bf07                    //  bf0b   90 fa                                                                                         
bf0d: ad 01 fc  -         lda $fc01                    //  bf0d   ad 01 fc                                                                                      
bf10: f0 f5     -         beq $bf07                    //  bf10   f0 f5                                                                                         
bf12: 29 7f     -         and #$7f                     //  bf12   29 7f                                                                                         
bf14: 60        -         rts                          //  bf14   60                                                                                      
bf15: 48        -         pha                          //  bf15   48                                                                                      
bf16: ad 00 fc  - lbf16:  lda $fc00                    //  bf16   ad 00 fc                                                                                      
bf19: 4a        -         lsr                          //  bf19   4a                                                                                        
bf1a: 4a        -         lsr                          //  bf1a   4a                                                                                        
bf1b: 90 f9     -         bcc $bf16                    //  bf1b   90 f9                                                                                         
bf1d: 68        -         pla                          //  bf1d   68                                                                                      
bf1e: 8d 01 fc  -         sta $fc01                    //  bf1e   8d 01 fc                                                                                      
bf21: 60        -         rts                          //  bf21   60                                                                                      
bf22: a9 03     -         lda #$03                     //  bf22   a9 03                                                                                         
bf24: 8d 00 fc  -         sta $fc00                    //  bf24   8d 00 fc                                                                                      
bf27: a9 b1     -         lda #$b1                     //  bf27   a9 b1                                                                                         
bf29: 8d 00 fc  -         sta $fc00                    //  bf29   8d 00 fc                                                                                      
bf2c: 60        -         rts                          //  bf2c   60                                                                                      
bf2d: 8d 02 02  -         sta $0202                    //  bf2d   8d 02 02                                                                                      
bf30: 48        -         pha                          //  bf30   48                                                                                      
bf31: 8a        -         txa                          //  bf31   8a                                                                                      
bf32: 48        -         pha                          //  bf32   48                                                                                      
bf33: 98        -         tya                          //  bf33   98                                                                                      
bf34: 48        -         pha                          //  bf34   48                                                                                      
bf35: ad 02 02  -         lda $0202                    //  bf35   ad 02 02                                                                                      
bf38: f0 33     -         beq $bf6d                    //  bf38   f0 33                                                                                         
bf3a: ac 06 02  -         ldy $0206                    //  bf3a   ac 06 02                                                                                      
bf3d: f0 08     -         beq $bf47                    //  bf3d   f0 08                                                                                         
bf3f: a2 40     - lbf3f:  ldx #$40                     //  bf3f   a2 40                                                                                         
bf41: ca        - lbf41:  dex                          //  bf41   ca                                                                                      
bf42: d0 fd     -         bne $bf41                    //  bf42   d0 fd                                                                                         
bf44: 88        -         dey                          //  bf44   88                                                                                      
bf45: d0 f8     -         bne $bf3f                    //  bf45   d0 f8                                                                                         
bf47: c9 0a     - lbf47:  cmp #$0a                     //  bf47   c9 0a                                                                                         
bf49: f0 2b     -         beq $bf76                    //  bf49   f0 2b                                                                                         
bf4b: c9 0d     -         cmp #$0d                     //  bf4b   c9 0d                                                                                         
bf4d: d0 06     -         bne $bf55                    //  bf4d   d0 06                                                                                         
bf4f: 20 d5 bf  -         jsr $bfd5                    //  bf4f   20 d5 bf                                                                                      
bf52: 4c 6d bf  -         jmp $bf6d                    //  bf52   4c 6d bf                                                                                      
bf55: 8d 01 02  - lbf55:  sta $0201                    //  bf55   8d 01 02                                                                                      
bf58: 20 c2 bf  -         jsr $bfc2                    //  bf58   20 c2 bf                                                                                      
bf5b: ee 00 02  -         inc $0200                    //  bf5b   ee 00 02                                                                                      
bf5e: ad e1 ff  -         lda $ffe1                    //  bf5e   ad e1 ff                                                                                      
bf61: 18        -         clc                          //  bf61   18                                                                                      
bf62: 6d e0 ff  -         adc $ffe0                    //  bf62   6d e0 ff                                                                                      
bf65: cd 00 02  -         cmp $0200                    //  bf65   cd 00 02                                                                                      
bf68: 30 09     -         bmi $bf73                    //  bf68   30 09                                                                                         
bf6a: 20 de bf  - lbf6a:  jsr $bfde                    //  bf6a   20 de bf                                                                                      
bf6d: 68        - lbf6d:  pla                          //  bf6d   68                                                                                      
bf6e: a8        -         tay                          //  bf6e   a8                                                                                      
bf6f: 68        -         pla                          //  bf6f   68                                                                                      
bf70: aa        -         tax                          //  bf70   aa                                                                                      
bf71: 68        -         pla                          //  bf71   68                                                                                      
bf72: 60        -         rts                          //  bf72   60                                                                                      
bf73: 20 d8 bf  - lbf73:  jsr $bfd8                    //  bf73   20 d8 bf                                                                                      
bf76: 20 c2 bf  - lbf76:  jsr $bfc2                    //  bf76   20 c2 bf                                                                                      
bf79: ad e0 ff  -         lda $ffe0                    //  bf79   ad e0 ff                                                                                      
bf7c: 29 e0     -         and #$e0                     //  bf7c   29 e0                                                                                         
bf7e: 8d 02 02  -         sta $0202                    //  bf7e   8d 02 02                                                                                      
bf81: a2 07     -         ldx #$07                     //  bf81   a2 07                                                                                         
bf83: bd f3 bf  - lbf83:  lda $bff3,x                   //  bf83   bd f3 bf                                                                                        
bf86: 9d 07 02  -         sta $0207,x                   //  bf86   9d 07 02                                                                                        
bf89: ca        -         dex                          //  bf89   ca                                                                                      
bf8a: 10 f7     -         bpl $bf83                    //  bf8a   10 f7                                                                                         
bf8c: be fb bf  -         ldx $bffb,y                   //  bf8c   be fb bf                                                                                        
bf8f: a9 20     -         lda #$20                     //  bf8f   a9 20                                                                                         
bf91: ac e1 ff  -         ldy $ffe1                    //  bf91   ac e1 ff                                                                                      
bf94: c0 20     -         cpy #$20                     //  bf94   c0 20                                                                                         
bf96: 30 01     -         bmi $bf99                    //  bf96   30 01                                                                                         
bf98: 0a        -         asl                          //  bf98   0a                                                                                        
bf99: 8d 08 02  - lbf99:  sta $0208                    //  bf99   8d 08 02                                                                                      
bf9c: a0 00     -         ldy #$00                     //  bf9c   a0 00                                                                                         
bf9e: 20 07 02  - lbf9e:  jsr $0207                    //  bf9e   20 07 02                                                                                      
bfa1: d0 fb     -         bne $bf9e                    //  bfa1   d0 fb                                                                                         
bfa3: ee 09 02  -         inc $0209                    //  bfa3   ee 09 02                                                                                      
bfa6: ee 0c 02  -         inc $020c                    //  bfa6   ee 0c 02                                                                                      
bfa9: ec 09 02  -         cpx $0209                    //  bfa9   ec 09 02                                                                                      
bfac: d0 f0     -         bne $bf9e                    //  bfac   d0 f0                                                                                         
bfae: 20 07 02  - lbfae:  jsr $0207                    //  bfae   20 07 02                                                                                      
bfb1: cc 02 02  -         cpy $0202                    //  bfb1   cc 02 02                                                                                      
bfb4: d0 f8     -         bne $bfae                    //  bfb4   d0 f8                                                                                         
bfb6: a9 20     -         lda #$20                     //  bfb6   a9 20                                                                                         
bfb8: 20 0a 02  - lbfb8:  jsr $020a                    //  bfb8   20 0a 02                                                                                      
bfbb: ce 08 02  -         dec $0208                    //  bfbb   ce 08 02                                                                                      
bfbe: d0 f8     -         bne $bfb8                    //  bfbe   d0 f8                                                                                         
bfc0: f0 a8     -         beq $bf6a                    //  bfc0   f0 a8                                                                                         
bfc2: ae 00 02  - lbfc2:  ldx $0200                    //  bfc2   ae 00 02                                                                                      
bfc5: ad 01 02  -         lda $0201                    //  bfc5   ad 01 02                                                                                      
bfc8: ac e2 ff  - lbfc8:  ldy $ffe2                    //  bfc8   ac e2 ff                                                                                      
bfcb: d0 04     -         bne $bfd1                    //  bfcb   d0 04                                                                                         
bfcd: 9d 00 d3  -         sta $d300,x                   //  bfcd   9d 00 d3                                                                                        
bfd0: 60        -         rts                          //  bfd0   60                                                                                      
bfd1: 9d 00 d7  - lbfd1:  sta $d700,x                   //  bfd1   9d 00 d7                                                                                        
bfd4: 60        -         rts                          //  bfd4   60                                                                                      
bfd5: 20 c2 bf  - lbfd5:  jsr $bfc2                    //  bfd5   20 c2 bf                                                                                      
bfd8: ad e0 ff  - lbfd8:  lda $ffe0                    //  bfd8   ad e0 ff                                                                                      
bfdb: 8d 00 02  -         sta $0200                    //  bfdb   8d 00 02                                                                                      
bfde: ae 00 02  - lbfde:  ldx $0200                    //  bfde   ae 00 02                                                                                      
bfe1: bd 00 d3  -         lda $d300,x                   //  bfe1   bd 00 d3                                                                                        
bfe4: ac e2 ff  -         ldy $ffe2                    //  bfe4   ac e2 ff                                                                                      
bfe7: f0 03     -         beq $bfec                    //  bfe7   f0 03                                                                                         
bfe9: bd 00 d7  -         lda $d700,x                   //  bfe9   bd 00 d7                                                                                        
bfec: 8d 01 02  - lbfec:  sta $0201                    //  bfec   8d 01 02                                                                                      
bfef: a9 9a     -         lda #$9a                     //  bfef   a9 9a                                                                                         
bff1: d0 d5     -         bne $bfc8                    //  bff1   d0 d5                                                                                         
bff3: b9 00 d0  -         lda $d000,y                   //  bff3   b9 00 d0                                                                                        
bff6: 99 00 d0  -         sta $d000,y                   //  bff6   99 00 d0                                                                                        
bff9: c8        -         iny                          //  bff9   c8                                                                                      
bffa: 60        -         rts                          //  bffa   60                                                                                      
bffb: d3        -         .byte $d3                    //  bffb   d3         %11010011                                                                                            
bffc: d7        -         .byte $d7                    //  bffc   d7         %11010111                                                                                            
bffd: 00        -         brk                          //  bffd   00                                                                                      
bffe: 00        -         brk                          //  bffe   00                                                                                      
bfff: 00        -         brk                          //  bfff   00 
