                            * = $e000
e000   2d e6 55             and $55e6
e003   e5 33                sbc $33
e005   ea                   nop
e006   ff                   ???                ;%11111111
e007   e6 16                inc $16
e009   e9 f4                sbc #$f4
e00b   ec 42 e9             cpx $e942
e00e   ac e7 ac             ldy $ace7
e011   e6 84                inc $84
e013   e6 2f                inc $2f
e015   e7                   ???                ;%11100111
e016   19 e6 8f             ora $8fe6,y
e019   e6 d9                inc $d9
e01b   e6 42                inc $42
e01d   e7                   ???                ;%11100111
e01e   2b                   ???                ;%00101011 '+'
e01f   e6 52                inc $52
e021   e7                   ???                ;%11100111
e022   6e e6 25             ror $25e6
e025   f4                   ???                ;%11110100
e026   74                   ???                ;%01110100 't'
e027   ff                   ???                ;%11111111
e028   75 ff                adc $ff,x
e02a   d1 ef                cmp ($ef),y
e02c   1c                   ???                ;%00011100
e02d   f4                   ???                ;%11110100
e02e   22                   ???                ;%00100010 '"'
e02f   e8                   inx
e030   54                   ???                ;%01010100 'T'
e031   e6 b4                inc $b4
e033   e4 7f                cpx $7f
e035   e6 60                inc $60
e037   e4 cc                cpx $cc
e039   f7                   ???                ;%11110111
e03a   56 f8                lsr $f8,x
e03c   e9 f7                sbc #$f7
e03e   0a                   asl a
e03f   00                   brk
e040   a1 ef                lda ($ef,x)
e042   c2                   ???                ;%11000010
e043   ef                   ???                ;%11101111
e044   a0 fa                ldy #$fa
e046   b4 fb                ldy $fb,x
e048   b1 f5                lda ($f5),y
e04a   0f                   ???                ;%00001111
e04b   fb                   ???                ;%11111011
e04c   f0 fb                beq le049
e04e   f7                   ???                ;%11110111
e04f   fb                   ???                ;%11111011
e050   40                   rti
e051   fc                   ???                ;%11111100
e052   8d fc 12   le052     sta $12fc
e055   f4                   ???                ;%11110100
e056   80                   ???                ;%10000000
e057   f3         le057     ???                ;%11110011
e058   80                   ???                ;%10000000
e059   f0 b1                beq le00c
e05b   f3                   ???                ;%11110011
e05c   8f                   ???                ;%10001111
e05d   f3                   ???                ;%11110011
e05e   f0 f2                beq le052
e060   04                   ???                ;%00000100
e061   f3                   ???                ;%11110011
e062   30 f3                bmi le057
e064   3b                   ???                ;%00111011 ';'
e065   f3                   ???                ;%11110011
e066   79 62 f4             adc $f462,y
e069   79 4b f4             adc $f44b,y
e06c   7b                   ???                ;%01111011 '{'
e06d   f1 f5                sbc ($f5),y
e06f   7b                   ???                ;%01111011 '{'
e070   c0 f6                cpy #$f6
e072   7f                   ???                ;%01111111
e073   a9 fa                lda #$fa
e075   50 5c                bvc le0d3
e077   ec 46 59             cpx $5946
e07a   ec 7d e2             cpx le27d
e07d   fa                   ???                ;%11111010
e07e   5a                   ???                ;%01011010 'Z'
e07f   cb                   ???                ;%11001011
e080   eb                   ???                ;%11101011
e081   64                   ???                ;%01100100 'd'
e082   89                   ???                ;%10001001
e083   ec 45 4e             cpx $4e45
e086   c4 46                cpy $46
e088   4f                   ???                ;%01001111 'O'
e089   d2                   ???                ;%11010010
e08a   4e 45 58             lsr $5845
e08d   d4                   ???                ;%11010100
e08e   44                   ???                ;%01000100 'D'
e08f   41 54                eor ($54,x)
e091   c1 49                cmp ($49,x)
e093   4e 50 55             lsr $5550
e096   d4                   ???                ;%11010100
e097   44                   ???                ;%01000100 'D'
e098   49 cd                eor #$cd
e09a   52                   ???                ;%01010010 'R'
e09b   45 41                eor $41
e09d   c4 4c                cpy $4c
e09f   45 d4                eor $d4
e0a1   47                   ???                ;%01000111 'G'
e0a2   4f                   ???                ;%01001111 'O'
e0a3   54                   ???                ;%01010100 'T'
e0a4   cf                   ???                ;%11001111
e0a5   52                   ???                ;%01010010 'R'
e0a6   55 ce                eor $ce,x
e0a8   49 c6                eor #$c6
e0aa   52                   ???                ;%01010010 'R'
e0ab   45 53                eor $53
e0ad   54                   ???                ;%01010100 'T'
e0ae   4f                   ???                ;%01001111 'O'
e0af   52                   ???                ;%01010010 'R'
e0b0   c5 47                cmp $47
e0b2   4f                   ???                ;%01001111 'O'
e0b3   53                   ???                ;%01010011 'S'
e0b4   55 c2                eor $c2,x
e0b6   52                   ???                ;%01010010 'R'
e0b7   45 54                eor $54
e0b9   55 52                eor $52,x
e0bb   ce 52 45             dec $4552
e0be   cd 53 54             cmp $5453
e0c1   4f                   ???                ;%01001111 'O'
e0c2   d0 4f                bne le113
e0c4   ce 4e 55             dec $554e
e0c7   4c cc 57             jmp $57cc
e0ca   41 49                eor ($49,x)
e0cc   d4                   ???                ;%11010100
e0cd   4c 4f 41             jmp $414f
e0d0   c4 53                cpy $53
e0d2   41 56                eor ($56,x)
e0d4   c5 44                cmp $44
e0d6   45 c6                eor $c6
e0d8   50 4f                bvc le129
e0da   4b                   ???                ;%01001011 'K'
e0db   c5 50                cmp $50
e0dd   52                   ???                ;%01010010 'R'
e0de   49 4e                eor #$4e
e0e0   d4                   ???                ;%11010100
e0e1   43                   ???                ;%01000011 'C'
e0e2   4f                   ???                ;%01001111 'O'
e0e3   4e d4 4c             lsr $4cd4
e0e6   49 53                eor #$53
e0e8   d4                   ???                ;%11010100
e0e9   43                   ???                ;%01000011 'C'
e0ea   4c 45 41             jmp $4145
e0ed   d2                   ???                ;%11010010
e0ee   4e 45 d7             lsr $d745
e0f1   54                   ???                ;%01010100 'T'
e0f2   41 42                eor ($42,x)
e0f4   a8                   tay
e0f5   54                   ???                ;%01010100 'T'
e0f6   cf                   ???                ;%11001111
e0f7   46 ce                lsr $ce
e0f9   53                   ???                ;%01010011 'S'
e0fa   50 43                bvc le13f
e0fc   a8                   tay
e0fd   54                   ???                ;%01010100 'T'
e0fe   48                   pha
e0ff   45 ce                eor $ce
e101   4e 4f d4             lsr $d44f
e104   53                   ???                ;%01010011 'S'
e105   54                   ???                ;%01010100 'T'
e106   45 d0                eor $d0
e108   ab                   ???                ;%10101011
e109   ad aa af             lda $afaa
e10c   de 41 4e             dec $4e41,x
e10f   c4 4f                cpy $4f
e111   d2                   ???                ;%11010010
e112   be bd bc             ldx $bcbd,y
e115   53                   ???                ;%01010011 'S'
e116   47                   ???                ;%01000111 'G'
e117   ce 49 4e             dec $4e49
e11a   d4                   ???                ;%11010100
e11b   41 42                eor ($42,x)
e11d   d3                   ???                ;%11010011
e11e   55 53                eor $53,x
e120   d2                   ???                ;%11010010
e121   46 52                lsr $52
e123   c5 50                cmp $50
e125   4f                   ???                ;%01001111 'O'
e126   d3                   ???                ;%11010011
e127   53                   ???                ;%01010011 'S'
e128   51 d2                eor ($d2),y
e12a   52                   ???                ;%01010010 'R'
e12b   4e c4 4c             lsr $4cc4
e12e   4f                   ???                ;%01001111 'O'
e12f   c7                   ???                ;%11000111
e130   45 58                eor $58
e132   d0 43                bne le177
e134   4f                   ???                ;%01001111 'O'
e135   d3                   ???                ;%11010011
e136   53                   ???                ;%01010011 'S'
e137   49 ce                eor #$ce
e139   54                   ???                ;%01010100 'T'
e13a   41 ce                eor ($ce,x)
e13c   41 54                eor ($54,x)
e13e   ce 50 45             dec $4550
e141   45 cb                eor $cb
e143   4c 45 ce             jmp $ce45
e146   53                   ???                ;%01010011 'S'
e147   54                   ???                ;%01010100 'T'
e148   52                   ???                ;%01010010 'R'
e149   a4 56                ldy $56
e14b   41 cc                eor ($cc,x)
e14d   41 53                eor ($53,x)
e14f   c3                   ???                ;%11000011
e150   43                   ???                ;%01000011 'C'
e151   48                   pha
e152   52                   ???                ;%01010010 'R'
e153   a4 4c                ldy $4c
e155   45 46                eor $46
e157   54                   ???                ;%01010100 'T'
e158   a4 52                ldy $52
e15a   49 47                eor #$47
e15c   48                   pha
e15d   54                   ???                ;%01010100 'T'
e15e   a4 4d                ldy $4d
e160   49 44                eor #$44
e162   a4 00                ldy $00
e164   4e 46 53             lsr $5346
e167   4e 52 47             lsr $4752
e16a   4f                   ???                ;%01001111 'O'
e16b   44                   ???                ;%01000100 'D'
e16c   46 43                lsr $43
e16e   4f                   ???                ;%01001111 'O'
e16f   56 4f                lsr $4f,x
e171   4d 55 53             eor $5355
e174   42                   ???                ;%01000010 'B'
e175   53                   ???                ;%01010011 'S'
e176   44                   ???                ;%01000100 'D'
e177   44         le177     ???                ;%01000100 'D'
e178   2f                   ???                ;%00101111 '/'
e179   30 49                bmi le1c4
e17b   44                   ???                ;%01000100 'D'
e17c   54                   ???                ;%01010100 'T'
e17d   4d 4c 53             eor $534c
e180   53                   ???                ;%01010011 'S'
e181   54                   ???                ;%01010100 'T'
e182   43                   ???                ;%01000011 'C'
e183   4e 55 46             lsr $4655
e186   20 45 52             jsr $5245
e189   52                   ???                ;%01010010 'R'
e18a   4f                   ???                ;%01001111 'O'
e18b   52                   ???                ;%01010010 'R'
e18c   00                   brk
e18d   20 49 4e             jsr $4e49
e190   20 00 0d             jsr $0d00
e193   0a                   asl a
e194   4f                   ???                ;%01001111 'O'
e195   4b                   ???                ;%01001011 'K'
e196   0d 0a 00             ora $000a
e199   0d 0a 42             ora $420a
e19c   52                   ???                ;%01010010 'R'
e19d   45 41                eor $41
e19f   4b                   ???                ;%01001011 'K'
e1a0   00                   brk
e1a1   ba         le1a1     tsx
e1a2   e8                   inx
e1a3   e8                   inx
e1a4   e8                   inx
e1a5   e8                   inx
e1a6   bd 01 01   le1a6     lda $0101,x
e1a9   c9 81                cmp #$81
e1ab   d0 21                bne le1ce
e1ad   a5 98                lda $98
e1af   d0 0a                bne le1bb
e1b1   bd 02 01             lda $0102,x
e1b4   85 97                sta $97
e1b6   bd 03 01             lda $0103,x
e1b9   85 98                sta $98
e1bb   dd 03 01   le1bb     cmp $0103,x
e1be   d0 07                bne le1c7
e1c0   a5 97                lda $97
e1c2   dd 02 01             cmp $0102,x
e1c5   f0 07                beq le1ce
e1c7   8a         le1c7     txa
e1c8   18                   clc
e1c9   69 10                adc #$10
e1cb   aa                   tax
e1cc   d0 d8                bne le1a6
e1ce   60         le1ce     rts
e1cf   20 1f e2   le1cf     jsr le21f
e1d2   85 7f                sta $7f
e1d4   84 80                sty $80
e1d6   38         le1d6     sec
e1d7   a5 a6                lda $a6
e1d9   e5 aa                sbc $aa
e1db   85 71                sta $71
e1dd   a8                   tay
e1de   a5 a7                lda $a7
e1e0   e5 ab                sbc $ab
e1e2   aa                   tax
e1e3   e8                   inx
e1e4   98                   tya
e1e5   f0 23                beq le20a
e1e7   a5 a6                lda $a6
e1e9   38                   sec
e1ea   e5 71                sbc $71
e1ec   85 a6                sta $a6
e1ee   b0 03                bcs le1f3
e1f0   c6 a7                dec $a7
e1f2   38                   sec
e1f3   a5 a4      le1f3     lda $a4
e1f5   e5 71                sbc $71
e1f7   85 a4                sta $a4
e1f9   b0 08                bcs le203
e1fb   c6 a5                dec $a5
e1fd   90 04                bcc le203
e1ff   b1 a6      le1ff     lda ($a6),y
e201   91 a4                sta ($a4),y
e203   88         le203     dey
e204   d0 f9                bne le1ff
e206   b1 a6                lda ($a6),y
e208   91 a4                sta ($a4),y
e20a   c6 a7      le20a     dec $a7
e20c   c6 a5                dec $a5
e20e   ca                   dex
e20f   d0 f2                bne le203
e211   60                   rts
e212   0a         le212     asl a
e213   69 33                adc #$33
e215   b0 35                bcs le24c
e217   85 71                sta $71
e219   ba                   tsx
e21a   e4 71                cpx $71
e21c   90 2e                bcc le24c
e21e   60                   rts
e21f   c4 82      le21f     cpy $82
e221   90 28                bcc le24b
e223   d0 04                bne le229
e225   c5 81                cmp $81
e227   90 22                bcc le24b
e229   48         le229     pha
e22a   a2 08                ldx #$08
e22c   98                   tya
e22d   48         le22d     pha
e22e   b5 a3                lda $a3,x
e230   ca                   dex
e231   10 fa                bpl le22d
e233   20 3b f1             jsr lf13b
e236   a2 f8                ldx #$f8
e238   68         le238     pla
e239   95 ac                sta $ac,x
e23b   e8                   inx
e23c   30 fa                bmi le238
e23e   68                   pla
e23f   a8                   tay
e240   68                   pla
e241   c4 82                cpy $82
e243   90 06                bcc le24b
e245   d0 05                bne le24c
e247   c5 81                cmp $81
e249   b0 01                bcs le24c
e24b   60         le24b     rts
e24c   a2 0c      le24c     ldx #$0c
e24e   46 64      le24e     lsr $64
e250   20 60 e8             jsr le860
e253   20 d7 e8             jsr le8d7
e256   bd 64 e1             lda $e164,x
e259   20 d9 e8             jsr le8d9
e25c   bd 65 e1             lda $e165,x
e25f   20 d9 e8             jsr le8d9
e262   20 91 e4             jsr le491
e265   a9 86                lda #$86
e267   a0 e1                ldy #$e1
e269   20 b7 e8   le269     jsr le8b7
e26c   a4 88                ldy $88
e26e   c8                   iny
e26f   f0 03                beq le274
e271   20 47 f9             jsr lf947
e274   46 64      le274     lsr $64
e276   a9 92                lda #$92
e278   a0 e1                ldy #$e1
e27a   20 03 00             jsr $0003
e27d   20 57 e3   le27d     jsr le357
e280   86 c3                stx $c3
e282   84 c4                sty $c4
e284   20 bc 00             jsr $00bc
e287   f0 f4                beq le27d
e289   a2 ff                ldx #$ff
e28b   86 88                stx $88
e28d   90 06                bcc le295
e28f   20 a6 e3             jsr le3a6
e292   4c f6 e5             jmp le5f6
e295   20 73 e7   le295     jsr le773
e298   20 a6 e3             jsr le3a6
e29b   84 5d                sty $5d
e29d   20 32 e4             jsr le432
e2a0   90 44                bcc le2e6
e2a2   a0 01                ldy #$01
e2a4   b1 aa                lda ($aa),y
e2a6   85 72                sta $72
e2a8   a5 7b                lda $7b
e2aa   85 71                sta $71
e2ac   a5 ab                lda $ab
e2ae   85 74                sta $74
e2b0   a5 aa                lda $aa
e2b2   88                   dey
e2b3   f1 aa                sbc ($aa),y
e2b5   18                   clc
e2b6   65 7b                adc $7b
e2b8   85 7b                sta $7b
e2ba   85 73                sta $73
e2bc   a5 7c                lda $7c
e2be   69 ff                adc #$ff
e2c0   85 7c                sta $7c
e2c2   e5 ab                sbc $ab
e2c4   aa                   tax
e2c5   38                   sec
e2c6   a5 aa                lda $aa
e2c8   e5 7b                sbc $7b
e2ca   a8                   tay
e2cb   b0 03                bcs le2d0
e2cd   e8                   inx
e2ce   c6 74                dec $74
e2d0   18         le2d0     clc
e2d1   65 71                adc $71
e2d3   90 03                bcc le2d8
e2d5   c6 72                dec $72
e2d7   18                   clc
e2d8   b1 71      le2d8     lda ($71),y
e2da   91 73                sta ($73),y
e2dc   c8                   iny
e2dd   d0 f9                bne le2d8
e2df   e6 72                inc $72
e2e1   e6 74                inc $74
e2e3   ca                   dex
e2e4   d0 f2                bne le2d8
e2e6   a5 13      le2e6     lda $13
e2e8   f0 2f                beq le319
e2ea   a5 85                lda $85
e2ec   a4 86                ldy $86
e2ee   85 81                sta $81
e2f0   84 82                sty $82
e2f2   a5 7b                lda $7b
e2f4   85 a6                sta $a6
e2f6   65 5d                adc $5d
e2f8   85 a4                sta $a4
e2fa   a4 7c                ldy $7c
e2fc   84 a7                sty $a7
e2fe   90 01                bcc le301
e300   c8                   iny
e301   84 a5      le301     sty $a5
e303   20 cf e1             jsr le1cf
e306   a5 7f                lda $7f
e308   a4 80                ldy $80
e30a   85 7b                sta $7b
e30c   84 7c                sty $7c
e30e   a4 5d                ldy $5d
e310   88                   dey
e311   b9 0f 00   le311     lda $000f,y
e314   91 aa                sta ($aa),y
e316   88                   dey
e317   10 f8                bpl le311
e319   20 77 e4   le319     jsr le477
e31c   a5 79                lda $79
e31e   a4 7a                ldy $7a
e320   85 71                sta $71
e322   84 72                sty $72
e324   18                   clc
e325   a0 01      le325     ldy #$01
e327   b1 71                lda ($71),y
e329   d0 03                bne le32e
e32b   4c 7d e2             jmp le27d
e32e   a0 04      le32e     ldy #$04
e330   c8         le330     iny
e331   b1 71                lda ($71),y
e333   d0 fb                bne le330
e335   c8                   iny
e336   98                   tya
e337   65 71                adc $71
e339   aa                   tax
e33a   a0 00                ldy #$00
e33c   91 71                sta ($71),y
e33e   a5 72                lda $72
e340   69 00                adc #$00
e342   c8                   iny
e343   91 71                sta ($71),y
e345   86 71                stx $71
e347   85 72                sta $72
e349   90 da                bcc le325
e34b   20 d9 e8   le34b     jsr le8d9
e34e   ca                   dex
e34f   10 08                bpl le359
e351   20 d9 e8   le351     jsr le8d9
e354   20 60 e8             jsr le860
e357   a2 00      le357     ldx #$00
e359   20 86 e3   le359     jsr le386
e35c   c9 07                cmp #$07
e35e   f0 14                beq le374
e360   c9 0d                cmp #$0d
e362   f0 1f                beq le383
e364   c9 08                cmp #$08
e366   f0 e3                beq le34b
e368   c9 20                cmp #$20
e36a   90 ed                bcc le359
e36c   c9 7d                cmp #$7d
e36e   b0 e9                bcs le359
e370   c9 40                cmp #$40
e372   f0 dd                beq le351
e374   e0 47      le374     cpx #$47
e376   b0 04                bcs le37c
e378   95 13                sta $13,x
e37a   e8                   inx
e37b   2c a9 07             bit $07a9
e37e   20 d9 e8             jsr le8d9
e381   d0 d6                bne le359
e383   4c 5a e8   le383     jmp le85a
e386   20 39 ff   le386     jsr lff39
e389   ea                   nop
e38a   ea                   nop
e38b   ea                   nop
e38c   ea                   nop
e38d   ea                   nop
e38e   ea                   nop
e38f   ea                   nop
e390   ea                   nop
e391   ea                   nop
e392   ea                   nop
e393   ea                   nop
e394   ea                   nop
e395   ea                   nop
e396   ea                   nop
e397   29 7f                and #$7f
e399   c9 0f                cmp #$0f
e39b   d0 08                bne le3a5
e39d   48                   pha
e39e   a5 64                lda $64
e3a0   49 ff                eor #$ff
e3a2   85 64                sta $64
e3a4   68                   pla
e3a5   60         le3a5     rts
e3a6   a6 c3      le3a6     ldx $c3
e3a8   a0 04                ldy #$04
e3aa   84 60                sty $60
e3ac   b5 00      le3ac     lda $00,x
e3ae   c9 20                cmp #$20
e3b0   f0 3a                beq le3ec
e3b2   85 5c                sta $5c
e3b4   c9 22                cmp #$22
e3b6   f0 58                beq le410
e3b8   24 60                bit $60
e3ba   70 30                bvs le3ec
e3bc   c9 3f                cmp #$3f
e3be   d0 04                bne le3c4
e3c0   a9 97                lda #$97
e3c2   d0 28                bne le3ec
e3c4   c9 30      le3c4     cmp #$30
e3c6   90 04                bcc le3cc
e3c8   c9 3c                cmp #$3c
e3ca   90 20                bcc le3ec
e3cc   84 ba      le3cc     sty $ba
e3ce   a0 00                ldy #$00
e3d0   84 5d                sty $5d
e3d2   88                   dey
e3d3   86 c3                stx $c3
e3d5   ca                   dex
e3d6   c8         le3d6     iny
e3d7   e8         le3d7     inx
e3d8   b5 00      le3d8     lda $00,x
e3da   c9 20                cmp #$20
e3dc   f0 f9                beq le3d7
e3de   38                   sec
e3df   f9 84 e0             sbc $e084,y
e3e2   f0 f2                beq le3d6
e3e4   c9 80                cmp #$80
e3e6   d0 2f                bne le417
e3e8   05 5d                ora $5d
e3ea   a4 ba      le3ea     ldy $ba
e3ec   e8         le3ec     inx
e3ed   c8                   iny
e3ee   99 0e 00             sta $000e,y
e3f1   b9 0e 00             lda $000e,y
e3f4   f0 34                beq le42a
e3f6   38                   sec
e3f7   e9 3a                sbc #$3a
e3f9   f0 04                beq le3ff
e3fb   c9 49                cmp #$49
e3fd   d0 02                bne le401
e3ff   85 60      le3ff     sta $60
e401   38         le401     sec
e402   e9 54                sbc #$54
e404   d0 a6                bne le3ac
e406   85 5c                sta $5c
e408   b5 00      le408     lda $00,x
e40a   f0 e0                beq le3ec
e40c   c5 5c                cmp $5c
e40e   f0 dc                beq le3ec
e410   c8         le410     iny
e411   99 0e 00             sta $000e,y
e414   e8                   inx
e415   d0 f1                bne le408
e417   a6 c3      le417     ldx $c3
e419   e6 5d                inc $5d
e41b   c8         le41b     iny
e41c   b9 83 e0             lda $e083,y
e41f   10 fa                bpl le41b
e421   b9 84 e0             lda $e084,y
e424   d0 b2                bne le3d8
e426   b5 00                lda $00,x
e428   10 c0                bpl le3ea
e42a   99 10 00   le42a     sta $0010,y
e42d   a9 12                lda #$12
e42f   85 c3                sta $c3
e431   60                   rts
e432   a5 79      le432     lda $79
e434   a6 7a                ldx $7a
e436   a0 01      le436     ldy #$01
e438   85 aa                sta $aa
e43a   86 ab                stx $ab
e43c   b1 aa                lda ($aa),y
e43e   f0 1f                beq le45f
e440   c8                   iny
e441   c8                   iny
e442   a5 12                lda $12
e444   d1 aa                cmp ($aa),y
e446   90 18                bcc le460
e448   f0 03                beq le44d
e44a   88                   dey
e44b   d0 09                bne le456
e44d   a5 11      le44d     lda $11
e44f   88                   dey
e450   d1 aa                cmp ($aa),y
e452   90 0c                bcc le460
e454   f0 0a                beq le460
e456   88         le456     dey
e457   b1 aa                lda ($aa),y
e459   aa                   tax
e45a   88                   dey
e45b   b1 aa                lda ($aa),y
e45d   b0 d7                bcs le436
e45f   18         le45f     clc
e460   60         le460     rts
e461   d0 fd                bne le460
e463   a9 00      le463     lda #$00
e465   a8                   tay
e466   91 79                sta ($79),y
e468   c8                   iny
e469   91 79                sta ($79),y
e46b   a5 79                lda $79
e46d   69 02                adc #$02
e46f   85 7b                sta $7b
e471   a5 7a                lda $7a
e473   69 00                adc #$00
e475   85 7c                sta $7c
e477   20 a7 e4   le477     jsr le4a7
e47a   a5 85      le47a     lda $85
e47c   a4 86                ldy $86
e47e   85 81                sta $81
e480   84 82                sty $82
e482   a5 7b                lda $7b
e484   a4 7c                ldy $7c
e486   85 7d                sta $7d
e488   84 7e                sty $7e
e48a   85 7f                sta $7f
e48c   84 80                sty $80
e48e   20 1a e6             jsr le61a
e491   a2 68      le491     ldx #$68
e493   86 65                stx $65
e495   68                   pla
e496   8d fd 01             sta $01fd
e499   68                   pla
e49a   8d fe 01             sta $01fe
e49d   a2 fc                ldx #$fc
e49f   9a                   txs
e4a0   a9 00                lda #$00
e4a2   85 8c                sta $8c
e4a4   85 61                sta $61
e4a6   60         le4a6     rts
e4a7   18         le4a7     clc
e4a8   a5 79                lda $79
e4aa   69 ff                adc #$ff
e4ac   85 c3                sta $c3
e4ae   a5 7a                lda $7a
e4b0   69 ff                adc #$ff
e4b2   85 c4                sta $c4
e4b4   60                   rts
e4b5   90 06                bcc le4bd
e4b7   f0 04                beq le4bd
e4b9   c9 a4                cmp #$a4
e4bb   d0 e9                bne le4a6
e4bd   20 73 e7   le4bd     jsr le773
e4c0   20 32 e4             jsr le432
e4c3   20 c2 00             jsr $00c2
e4c6   f0 0c                beq le4d4
e4c8   c9 a4                cmp #$a4
e4ca   d0 94                bne le460
e4cc   20 bc 00             jsr $00bc
e4cf   20 73 e7             jsr le773
e4d2   d0 8c                bne le460
e4d4   68         le4d4     pla
e4d5   68                   pla
e4d6   a5 11                lda $11
e4d8   05 12                ora $12
e4da   d0 06                bne le4e2
e4dc   a9 ff                lda #$ff
e4de   85 11                sta $11
e4e0   85 12                sta $12
e4e2   a0 01      le4e2     ldy #$01
e4e4   84 60                sty $60
e4e6   b1 aa                lda ($aa),y
e4e8   f0 41                beq le52b
e4ea   20 29 e6             jsr le629
e4ed   20 60 e8             jsr le860
e4f0   c8                   iny
e4f1   b1 aa                lda ($aa),y
e4f3   aa                   tax
e4f4   c8                   iny
e4f5   b1 aa                lda ($aa),y
e4f7   c5 12                cmp $12
e4f9   d0 04                bne le4ff
e4fb   e4 11                cpx $11
e4fd   f0 02                beq le501
e4ff   b0 2a      le4ff     bcs le52b
e501   84 97      le501     sty $97
e503   20 52 f9             jsr lf952
e506   a9 20                lda #$20
e508   a4 97      le508     ldy $97
e50a   29 7f                and #$7f
e50c   20 d9 e8   le50c     jsr le8d9
e50f   c9 22                cmp #$22
e511   d0 06                bne le519
e513   a5 60                lda $60
e515   49 ff                eor #$ff
e517   85 60                sta $60
e519   c8         le519     iny
e51a   b1 aa                lda ($aa),y
e51c   d0 10                bne le52e
e51e   a8                   tay
e51f   b1 aa                lda ($aa),y
e521   aa                   tax
e522   c8                   iny
e523   b1 aa                lda ($aa),y
e525   86 aa                stx $aa
e527   85 ab                sta $ab
e529   d0 b7                bne le4e2
e52b   4c 74 e2   le52b     jmp le274
e52e   10 dc      le52e     bpl le50c
e530   c9 ff                cmp #$ff
e532   f0 d8                beq le50c
e534   24 60                bit $60
e536   30 d4                bmi le50c
e538   38                   sec
e539   e9 7f                sbc #$7f
e53b   aa                   tax
e53c   84 97                sty $97
e53e   a0 ff                ldy #$ff
e540   ca         le540     dex
e541   f0 08                beq le54b
e543   c8         le543     iny
e544   b9 84 e0             lda $e084,y
e547   10 fa                bpl le543
e549   30 f5                bmi le540
e54b   c8         le54b     iny
e54c   b9 84 e0             lda $e084,y
e54f   30 b7                bmi le508
e551   20 d9 e8             jsr le8d9
e554   d0 f5                bne le54b
e556   a9 80                lda #$80
e558   85 61                sta $61
e55a   20 ad e7             jsr le7ad
e55d   20 a1 e1             jsr le1a1
e560   d0 05                bne le567
e562   8a                   txa
e563   69 0d                adc #$0d
e565   aa                   tax
e566   9a                   txs
e567   68         le567     pla
e568   68                   pla
e569   a9 08                lda #$08
e56b   20 12 e2             jsr le212
e56e   20 0e e7             jsr le70e
e571   18                   clc
e572   98                   tya
e573   65 c3                adc $c3
e575   48                   pha
e576   a5 c4                lda $c4
e578   69 00                adc #$00
e57a   48                   pha
e57b   a5 88                lda $88
e57d   48                   pha
e57e   a5 87                lda $87
e580   48                   pha
e581   a9 9d                lda #$9d
e583   20 f7 eb             jsr lebf7
e586   20 a4 ea             jsr leaa4
e589   20 a1 ea             jsr leaa1
e58c   a5 b0                lda $b0
e58e   09 7f                ora #$7f
e590   25 ad                and $ad
e592   85 ad                sta $ad
e594   a9 9f                lda #$9f
e596   a0 e5                ldy #$e5
e598   85 71                sta $71
e59a   84 72                sty $72
e59c   4c 5a eb             jmp leb5a
e59f   a9 90                lda #$90
e5a1   a0 f5                ldy #$f5
e5a3   20 3f f7             jsr lf73f
e5a6   20 c2 00             jsr $00c2
e5a9   c9 a2                cmp #$a2
e5ab   d0 06                bne le5b3
e5ad   20 bc 00             jsr $00bc
e5b0   20 a1 ea             jsr leaa1
e5b3   20 be f7   le5b3     jsr lf7be
e5b6   20 4f eb             jsr leb4f
e5b9   a5 98                lda $98
e5bb   48                   pha
e5bc   a5 97                lda $97
e5be   48                   pha
e5bf   a9 81                lda #$81
e5c1   48                   pha
e5c2   20 29 e6   le5c2     jsr le629
e5c5   a5 c3                lda $c3
e5c7   a4 c4                ldy $c4
e5c9   f0 06                beq le5d1
e5cb   85 8b                sta $8b
e5cd   84 8c                sty $8c
e5cf   a0 00                ldy #$00
e5d1   b1 c3      le5d1     lda ($c3),y
e5d3   f0 07                beq le5dc
e5d5   c9 3a                cmp #$3a
e5d7   f0 1d                beq le5f6
e5d9   4c 00 ec   le5d9     jmp lec00
e5dc   a0 02      le5dc     ldy #$02
e5de   b1 c3                lda ($c3),y
e5e0   18                   clc
e5e1   f0 62                beq le645
e5e3   c8                   iny
e5e4   b1 c3                lda ($c3),y
e5e6   85 87                sta $87
e5e8   c8                   iny
e5e9   b1 c3                lda ($c3),y
e5eb   85 88                sta $88
e5ed   98                   tya
e5ee   65 c3                adc $c3
e5f0   85 c3                sta $c3
e5f2   90 02                bcc le5f6
e5f4   e6 c4                inc $c4
e5f6   20 bc 00   le5f6     jsr $00bc
e5f9   20 ff e5             jsr le5ff
e5fc   4c c2 e5             jmp le5c2
e5ff   f0 6d      le5ff     beq le66e
e601   38                   sec
e602   e9 80      le602     sbc #$80
e604   b0 03                bcs le609
e606   4c ad e7             jmp le7ad
e609   c9 1c      le609     cmp #$1c
e60b   b0 cc                bcs le5d9
e60d   0a                   asl a
e60e   a8                   tay
e60f   b9 01 e0             lda $e001,y
e612   48                   pha
e613   b9 00 e0             lda $e000,y
e616   48                   pha
e617   4c bc 00             jmp $00bc
e61a   38         le61a     sec
e61b   a5 79                lda $79
e61d   e9 01                sbc #$01
e61f   a4 7a                ldy $7a
e621   b0 01                bcs le624
e623   88                   dey
e624   85 8f      le624     sta $8f
e626   84 90                sty $90
e628   60                   rts
e629   20 49 ff   le629     jsr lff49
e62c   b0 01                bcs le62f
e62e   18                   clc
e62f   d0 3d      le62f     bne le66e
e631   a5 c3                lda $c3
e633   a4 c4                ldy $c4
e635   f0 0c                beq le643
e637   85 8b                sta $8b
e639   84 8c                sty $8c
e63b   a5 87      le63b     lda $87
e63d   a4 88                ldy $88
e63f   85 89                sta $89
e641   84 8a                sty $8a
e643   68         le643     pla
e644   68                   pla
e645   a9 99      le645     lda #$99
e647   a0 e1                ldy #$e1
e649   a2 00                ldx #$00
e64b   86 64                stx $64
e64d   90 03                bcc le652
e64f   4c 69 e2             jmp le269
e652   4c 74 e2   le652     jmp le274
e655   d0 17                bne le66e
e657   a2 1e                ldx #$1e
e659   a4 8c                ldy $8c
e65b   d0 03                bne le660
e65d   4c 4e e2             jmp le24e
e660   a5 8b      le660     lda $8b
e662   85 c3                sta $c3
e664   84 c4                sty $c4
e666   a5 89                lda $89
e668   a4 8a                ldy $8a
e66a   85 87                sta $87
e66c   84 88                sty $88
e66e   60         le66e     rts
e66f   20 a2 f3             jsr lf3a2
e672   d0 fa                bne le66e
e674   e8                   inx
e675   e0 0a                cpx #$0a
e677   b0 04                bcs le67d
e679   ca                   dex
e67a   86 0d                stx $0d
e67c   60                   rts
e67d   4c 7c ee   le67d     jmp lee7c
e680   d0 ec                bne le66e
e682   4c 7a e4             jmp le47a
e685   d0 03                bne le68a
e687   4c 77 e4             jmp le477
e68a   20 7a e4   le68a     jsr le47a
e68d   4c a4 e6             jmp le6a4
e690   a9 03                lda #$03
e692   20 12 e2             jsr le212
e695   a5 c4                lda $c4
e697   48                   pha
e698   a5 c3                lda $c3
e69a   48                   pha
e69b   a5 88                lda $88
e69d   48                   pha
e69e   a5 87                lda $87
e6a0   48                   pha
e6a1   a9 8c                lda #$8c
e6a3   48                   pha
e6a4   20 c2 00   le6a4     jsr $00c2
e6a7   20 ad e6             jsr le6ad
e6aa   4c c2 e5             jmp le5c2
e6ad   20 73 e7   le6ad     jsr le773
e6b0   20 11 e7             jsr le711
e6b3   a5 88                lda $88
e6b5   c5 12                cmp $12
e6b7   b0 0b                bcs le6c4
e6b9   98                   tya
e6ba   38                   sec
e6bb   65 c3                adc $c3
e6bd   a6 c4                ldx $c4
e6bf   90 07                bcc le6c8
e6c1   e8                   inx
e6c2   b0 04                bcs le6c8
e6c4   a5 79      le6c4     lda $79
e6c6   a6 7a                ldx $7a
e6c8   20 36 e4   le6c8     jsr le436
e6cb   90 1e                bcc le6eb
e6cd   a5 aa                lda $aa
e6cf   e9 01                sbc #$01
e6d1   85 c3                sta $c3
e6d3   a5 ab                lda $ab
e6d5   e9 00                sbc #$00
e6d7   85 c4                sta $c4
e6d9   60         le6d9     rts
e6da   d0 fd                bne le6d9
e6dc   a9 ff                lda #$ff
e6de   85 97                sta $97
e6e0   20 a1 e1             jsr le1a1
e6e3   9a                   txs
e6e4   c9 8c                cmp #$8c
e6e6   f0 0b                beq le6f3
e6e8   a2 04                ldx #$04
e6ea   2c a2 0e             bit $0ea2
e6ed   4c 4e e2             jmp le24e
e6f0   4c 00 ec   le6f0     jmp lec00
e6f3   68         le6f3     pla
e6f4   68                   pla
e6f5   85 87                sta $87
e6f7   68                   pla
e6f8   85 88                sta $88
e6fa   68                   pla
e6fb   85 c3                sta $c3
e6fd   68                   pla
e6fe   85 c4                sta $c4
e700   20 0e e7   le700     jsr le70e
e703   98         le703     tya
e704   18                   clc
e705   65 c3                adc $c3
e707   85 c3                sta $c3
e709   90 02                bcc le70d
e70b   e6 c4                inc $c4
e70d   60         le70d     rts
e70e   a2 3a      le70e     ldx #$3a
e710   2c a2 00             bit $00a2
e713   86 5b                stx $5b
e715   a0 00                ldy #$00
e717   84 5c                sty $5c
e719   a5 5c      le719     lda $5c
e71b   a6 5b                ldx $5b
e71d   85 5b                sta $5b
e71f   86 5c                stx $5c
e721   b1 c3      le721     lda ($c3),y
e723   f0 e8                beq le70d
e725   c5 5c                cmp $5c
e727   f0 e4                beq le70d
e729   c8                   iny
e72a   c9 22                cmp #$22
e72c   f0 eb                beq le719
e72e   d0 f1                bne le721
e730   20 b5 ea             jsr leab5
e733   20 c2 00             jsr $00c2
e736   c9 88                cmp #$88
e738   f0 05                beq le73f
e73a   a9 a0                lda #$a0
e73c   20 f7 eb             jsr lebf7
e73f   a5 ac      le73f     lda $ac
e741   d0 05                bne le748
e743   20 11 e7             jsr le711
e746   f0 bb                beq le703
e748   20 c2 00   le748     jsr $00c2
e74b   b0 03                bcs le750
e74d   4c ad e6             jmp le6ad
e750   4c ff e5   le750     jmp le5ff
e753   20 a2 f3             jsr lf3a2
e756   48                   pha
e757   c9 8c                cmp #$8c
e759   f0 04                beq le75f
e75b   c9 88      le75b     cmp #$88
e75d   d0 91                bne le6f0
e75f   c6 af      le75f     dec $af
e761   d0 04                bne le767
e763   68                   pla
e764   4c 02 e6             jmp le602
e767   20 bc 00   le767     jsr $00bc
e76a   20 73 e7             jsr le773
e76d   c9 2c                cmp #$2c
e76f   f0 ee                beq le75f
e771   68                   pla
e772   60         le772     rts
e773   a2 00      le773     ldx #$00
e775   86 11                stx $11
e777   86 12                stx $12
e779   b0 f7      le779     bcs le772
e77b   e9 2f                sbc #$2f
e77d   85 5b                sta $5b
e77f   a5 12                lda $12
e781   85 71                sta $71
e783   c9 19                cmp #$19
e785   b0 d4                bcs le75b
e787   a5 11                lda $11
e789   0a                   asl a
e78a   26 71                rol $71
e78c   0a                   asl a
e78d   26 71                rol $71
e78f   65 11                adc $11
e791   85 11                sta $11
e793   a5 71                lda $71
e795   65 12                adc $12
e797   85 12                sta $12
e799   06 11                asl $11
e79b   26 12                rol $12
e79d   a5 11                lda $11
e79f   65 5b                adc $5b
e7a1   85 11                sta $11
e7a3   90 02                bcc le7a7
e7a5   e6 12                inc $12
e7a7   20 bc 00   le7a7     jsr $00bc
e7aa   4c 79 e7             jmp le779
e7ad   20 ff ec   le7ad     jsr lecff
e7b0   85 97                sta $97
e7b2   84 98                sty $98
e7b4   a9 ab                lda #$ab
e7b6   20 f7 eb             jsr lebf7
e7b9   a5 5f                lda $5f
e7bb   48                   pha
e7bc   20 b5 ea             jsr leab5
e7bf   68                   pla
e7c0   2a                   rol a
e7c1   20 a7 ea             jsr leaa7
e7c4   d0 03                bne le7c9
e7c6   4c 68 f7             jmp lf768
e7c9   a0 02      le7c9     ldy #$02
e7cb   b1 ae                lda ($ae),y
e7cd   c5 82                cmp $82
e7cf   90 17                bcc le7e8
e7d1   d0 07                bne le7da
e7d3   88                   dey
e7d4   b1 ae                lda ($ae),y
e7d6   c5 81                cmp $81
e7d8   90 0e                bcc le7e8
e7da   a4 af      le7da     ldy $af
e7dc   c4 7c                cpy $7c
e7de   90 08                bcc le7e8
e7e0   d0 0d                bne le7ef
e7e2   a5 ae                lda $ae
e7e4   c5 7b                cmp $7b
e7e6   b0 07                bcs le7ef
e7e8   a5 ae      le7e8     lda $ae
e7ea   a4 af                ldy $af
e7ec   4c 05 e8             jmp le805
e7ef   a0 00      le7ef     ldy #$00
e7f1   b1 ae                lda ($ae),y
e7f3   20 90 f0             jsr lf090
e7f6   a5 9e                lda $9e
e7f8   a4 9f                ldy $9f
e7fa   85 b8                sta $b8
e7fc   84 b9                sty $b9
e7fe   20 7e f2             jsr lf27e
e801   a9 ac                lda #$ac
e803   a0 00                ldy #$00
e805   85 9e      le805     sta $9e
e807   84 9f                sty $9f
e809   20 df f2             jsr lf2df
e80c   a0 00                ldy #$00
e80e   b1 9e                lda ($9e),y
e810   91 97                sta ($97),y
e812   c8                   iny
e813   b1 9e                lda ($9e),y
e815   91 97                sta ($97),y
e817   c8                   iny
e818   b1 9e                lda ($9e),y
e81a   91 97                sta ($97),y
e81c   60                   rts
e81d   20 ba e8   le81d     jsr le8ba
e820   20 c2 00   le820     jsr $00c2
e823   f0 3b                beq le860
e825   f0 57      le825     beq le87e
e827   c9 9c                cmp #$9c
e829   f0 6b                beq le896
e82b   c9 9f                cmp #$9f
e82d   f0 67                beq le896
e82f   c9 2c                cmp #$2c
e831   f0 4c                beq le87f
e833   c9 3b                cmp #$3b
e835   f0 7a                beq le8b1
e837   20 b5 ea             jsr leab5
e83a   24 5f                bit $5f
e83c   30 df                bmi le81d
e83e   20 62 f9             jsr lf962
e841   20 a2 f0             jsr lf0a2
e844   a0 00                ldy #$00
e846   b1 ae                lda ($ae),y
e848   18                   clc
e849   65 0e                adc $0e
e84b   c5 0f                cmp $0f
e84d   90 03                bcc le852
e84f   20 60 e8             jsr le860
e852   20 ba e8   le852     jsr le8ba
e855   20 d4 e8             jsr le8d4
e858   d0 c6                bne le820
e85a   a0 00      le85a     ldy #$00
e85c   94 13                sty $13,x
e85e   a2 12                ldx #$12
e860   a9 0d      le860     lda #$0d
e862   85 0e                sta $0e
e864   20 d9 e8             jsr le8d9
e867   a9 0a                lda #$0a
e869   20 d9 e8             jsr le8d9
e86c   8a         le86c     txa
e86d   48                   pha
e86e   a6 0d                ldx $0d
e870   f0 08                beq le87a
e872   a9 00                lda #$00
e874   20 d9 e8   le874     jsr le8d9
e877   ca                   dex
e878   d0 fa                bne le874
e87a   86 0e      le87a     stx $0e
e87c   68                   pla
e87d   aa                   tax
e87e   60         le87e     rts
e87f   a5 0e      le87f     lda $0e
e881   c5 10                cmp $10
e883   90 06                bcc le88b
e885   20 60 e8             jsr le860
e888   4c b1 e8             jmp le8b1
e88b   38         le88b     sec
e88c   e9 0e      le88c     sbc #$0e
e88e   b0 fc                bcs le88c
e890   49 ff                eor #$ff
e892   69 01                adc #$01
e894   d0 14                bne le8aa
e896   48         le896     pha
e897   20 9f f3             jsr lf39f
e89a   c9 29                cmp #$29
e89c   d0 66                bne le904
e89e   68                   pla
e89f   c9 9c                cmp #$9c
e8a1   d0 08                bne le8ab
e8a3   8a                   txa
e8a4   e5 0e                sbc $0e
e8a6   90 09                bcc le8b1
e8a8   f0 07                beq le8b1
e8aa   aa         le8aa     tax
e8ab   20 d4 e8   le8ab     jsr le8d4
e8ae   ca                   dex
e8af   d0 fa                bne le8ab
e8b1   20 bc 00   le8b1     jsr $00bc
e8b4   4c 25 e8             jmp le825
e8b7   20 a2 f0   le8b7     jsr lf0a2
e8ba   20 aa f2   le8ba     jsr lf2aa
e8bd   aa                   tax
e8be   a0 00                ldy #$00
e8c0   e8                   inx
e8c1   ca         le8c1     dex
e8c2   f0 ba                beq le87e
e8c4   b1 71                lda ($71),y
e8c6   20 d9 e8             jsr le8d9
e8c9   c8                   iny
e8ca   c9 0d                cmp #$0d
e8cc   d0 f3                bne le8c1
e8ce   20 6c e8             jsr le86c
e8d1   4c c1 e8             jmp le8c1
e8d4   a9 20      le8d4     lda #$20
e8d6   2c a9 3f             bit $3fa9
e8d9   24 64      le8d9     bit $64
e8db   30 18                bmi le8f5
e8dd   48                   pha
e8de   c9 20                cmp #$20
e8e0   90 0b                bcc le8ed
e8e2   a5 0e                lda $0e
e8e4   c5 0f                cmp $0f
e8e6   d0 03                bne le8eb
e8e8   20 60 e8             jsr le860
e8eb   e6 0e      le8eb     inc $0e
e8ed   68         le8ed     pla
e8ee   20 2a ff             jsr lff2a
e8f1   ea                   nop
e8f2   ea                   nop
e8f3   ea                   nop
e8f4   ea                   nop
e8f5   29 ff      le8f5     and #$ff
e8f7   60                   rts
e8f8   a5 62      le8f8     lda $62
e8fa   f0 0b                beq le907
e8fc   a5 8d                lda $8d
e8fe   a4 8e                ldy $8e
e900   85 87                sta $87
e902   84 88                sty $88
e904   4c 00 ec   le904     jmp lec00
e907   a9 21      le907     lda #$21
e909   a0 ea                ldy #$ea
e90b   20 b7 e8             jsr le8b7
e90e   a5 8b                lda $8b
e910   a4 8c                ldy $8c
e912   85 c3                sta $c3
e914   84 c4                sty $c4
e916   60                   rts
e917   46 64                lsr $64
e919   c9 22                cmp #$22
e91b   d0 0b                bne le928
e91d   20 b5 eb             jsr lebb5
e920   a9 3b                lda #$3b
e922   20 f7 eb             jsr lebf7
e925   20 ba e8             jsr le8ba
e928   20 c8 ef   le928     jsr lefc8
e92b   a9 2c                lda #$2c
e92d   85 12                sta $12
e92f   20 3a e9             jsr le93a
e932   a5 13                lda $13
e934   d0 12                bne le948
e936   18                   clc
e937   4c 3b e6             jmp le63b
e93a   20 d7 e8   le93a     jsr le8d7
e93d   20 d4 e8             jsr le8d4
e940   4c 57 e3             jmp le357
e943   a6 8f                ldx $8f
e945   a4 90                ldy $90
e947   a9 98                lda #$98
e949   85 62                sta $62
e94b   86 91                stx $91
e94d   84 92                sty $92
e94f   20 ff ec   le94f     jsr lecff
e952   85 97                sta $97
e954   84 98                sty $98
e956   a5 c3                lda $c3
e958   a4 c4                ldy $c4
e95a   85 11                sta $11
e95c   84 12                sty $12
e95e   a6 91                ldx $91
e960   a4 92                ldy $92
e962   86 c3                stx $c3
e964   84 c4                sty $c4
e966   20 c2 00             jsr $00c2
e969   d0 0e                bne le979
e96b   24 62                bit $62
e96d   30 62                bmi le9d1
e96f   20 d7 e8             jsr le8d7
e972   20 3a e9             jsr le93a
e975   86 c3                stx $c3
e977   84 c4                sty $c4
e979   20 bc 00   le979     jsr $00bc
e97c   24 5f                bit $5f
e97e   10 24                bpl le9a4
e980   85 5b                sta $5b
e982   c9 22                cmp #$22
e984   f0 07                beq le98d
e986   a9 3a                lda #$3a
e988   85 5b                sta $5b
e98a   a9 2c                lda #$2c
e98c   18                   clc
e98d   85 5c      le98d     sta $5c
e98f   a5 c3                lda $c3
e991   a4 c4                ldy $c4
e993   69 00                adc #$00
e995   90 01                bcc le998
e997   c8                   iny
e998   20 a8 f0   le998     jsr lf0a8
e99b   20 e7 f3             jsr lf3e7
e99e   20 c9 e7             jsr le7c9
e9a1   4c aa e9             jmp le9aa
e9a4   20 7b f8   le9a4     jsr lf87b
e9a7   20 68 f7             jsr lf768
e9aa   20 c2 00   le9aa     jsr $00c2
e9ad   f0 07                beq le9b6
e9af   c9 2c                cmp #$2c
e9b1   f0 03                beq le9b6
e9b3   4c f8 e8             jmp le8f8
e9b6   a5 c3      le9b6     lda $c3
e9b8   a4 c4                ldy $c4
e9ba   85 91                sta $91
e9bc   84 92                sty $92
e9be   a5 11                lda $11
e9c0   a4 12                ldy $12
e9c2   85 c3                sta $c3
e9c4   84 c4                sty $c4
e9c6   20 c2 00             jsr $00c2
e9c9   f0 2c                beq le9f7
e9cb   20 f5 eb             jsr lebf5
e9ce   4c 4f e9             jmp le94f
e9d1   20 0e e7   le9d1     jsr le70e
e9d4   c8                   iny
e9d5   aa                   tax
e9d6   d0 12                bne le9ea
e9d8   a2 06                ldx #$06
e9da   c8                   iny
e9db   b1 c3                lda ($c3),y
e9dd   f0 69                beq lea48
e9df   c8                   iny
e9e0   b1 c3                lda ($c3),y
e9e2   85 8d                sta $8d
e9e4   c8                   iny
e9e5   b1 c3                lda ($c3),y
e9e7   c8                   iny
e9e8   85 8e                sta $8e
e9ea   b1 c3      le9ea     lda ($c3),y
e9ec   aa                   tax
e9ed   20 03 e7             jsr le703
e9f0   e0 83                cpx #$83
e9f2   d0 dd                bne le9d1
e9f4   4c 79 e9             jmp le979
e9f7   a5 91      le9f7     lda $91
e9f9   a4 92                ldy $92
e9fb   a6 62                ldx $62
e9fd   f0 03                beq lea02
e9ff   4c 24 e6             jmp le624
ea02   a0 00      lea02     ldy #$00
ea04   b1 91                lda ($91),y
ea06   f0 07                beq lea0f
ea08   a9 10                lda #$10
ea0a   a0 ea                ldy #$ea
ea0c   4c b7 e8             jmp le8b7
ea0f   60         lea0f     rts
ea10   3f                   ???                ;%00111111 '?'
ea11   45 58                eor $58
ea13   54                   ???                ;%01010100 'T'
ea14   52                   ???                ;%01010010 'R'
ea15   41 20                eor ($20,x)
ea17   49 47                eor #$47
ea19   4e 4f 52             lsr $524f
ea1c   45 44                eor $44
ea1e   0d 0a 00             ora $000a
ea21   3f                   ???                ;%00111111 '?'
ea22   52                   ???                ;%01010010 'R'
ea23   45 44                eor $44
ea25   4f                   ???                ;%01001111 'O'
ea26   20 46 52             jsr $5246
ea29   4f                   ???                ;%01001111 'O'
ea2a   4d 20 53             eor $5320
ea2d   54                   ???                ;%01010100 'T'
ea2e   41 52                eor ($52,x)
ea30   54                   ???                ;%01010100 'T'
ea31   0d 0a 00             ora $000a
ea34   d0 04                bne lea3a
ea36   a0 00                ldy #$00
ea38   f0 03                beq lea3d
ea3a   20 ff ec   lea3a     jsr lecff
ea3d   85 97      lea3d     sta $97
ea3f   84 98                sty $98
ea41   20 a1 e1             jsr le1a1
ea44   f0 04                beq lea4a
ea46   a2 00                ldx #$00
ea48   f0 68      lea48     beq leab2
ea4a   9a         lea4a     txs
ea4b   e8                   inx
ea4c   e8                   inx
ea4d   e8                   inx
ea4e   e8                   inx
ea4f   8a                   txa
ea50   e8                   inx
ea51   e8                   inx
ea52   e8                   inx
ea53   e8                   inx
ea54   e8                   inx
ea55   86 73                stx $73
ea57   a0 01                ldy #$01
ea59   20 3f f7             jsr lf73f
ea5c   ba                   tsx
ea5d   bd 08 01             lda $0108,x
ea60   85 b0                sta $b0
ea62   a5 97                lda $97
ea64   a4 98                ldy $98
ea66   20 60 f4             jsr lf460
ea69   20 68 f7             jsr lf768
ea6c   a0 01                ldy #$01
ea6e   20 ee f7             jsr lf7ee
ea71   ba                   tsx
ea72   38                   sec
ea73   fd 08 01             sbc $0108,x
ea76   f0 17                beq lea8f
ea78   bd 0d 01             lda $010d,x
ea7b   85 87                sta $87
ea7d   bd 0e 01             lda $010e,x
ea80   85 88                sta $88
ea82   bd 10 01             lda $0110,x
ea85   85 c3                sta $c3
ea87   bd 0f 01             lda $010f,x
ea8a   85 c4                sta $c4
ea8c   4c c2 e5   lea8c     jmp le5c2
ea8f   8a         lea8f     txa
ea90   69 0f                adc #$0f
ea92   aa                   tax
ea93   9a                   txs
ea94   20 c2 00             jsr $00c2
ea97   c9 2c                cmp #$2c
ea99   d0 f1                bne lea8c
ea9b   20 bc 00             jsr $00bc
ea9e   20 3a ea             jsr lea3a
eaa1   20 b5 ea   leaa1     jsr leab5
eaa4   18         leaa4     clc
eaa5   24 38                bit $38
eaa7   24 5f      leaa7     bit $5f
eaa9   30 03                bmi leaae
eaab   b0 03                bcs leab0
eaad   60         leaad     rts
eaae   b0 fd      leaae     bcs leaad
eab0   a2 18      leab0     ldx #$18
eab2   4c 4e e2   leab2     jmp le24e
eab5   a6 c3      leab5     ldx $c3
eab7   d0 02                bne leabb
eab9   c6 c4                dec $c4
eabb   c6 c3      leabb     dec $c3
eabd   a2 00                ldx #$00
eabf   24 48                bit $48
eac1   8a                   txa
eac2   48                   pha
eac3   a9 01                lda #$01
eac5   20 12 e2             jsr le212
eac8   20 94 eb             jsr leb94
eacb   a9 00                lda #$00
eacd   85 9b                sta $9b
eacf   20 c2 00   leacf     jsr $00c2
ead2   38         lead2     sec
ead3   e9 aa                sbc #$aa
ead5   90 17                bcc leaee
ead7   c9 03                cmp #$03
ead9   b0 13                bcs leaee
eadb   c9 01                cmp #$01
eadd   2a                   rol a
eade   49 01                eor #$01
eae0   45 9b                eor $9b
eae2   c5 9b                cmp $9b
eae4   90 61                bcc leb47
eae6   85 9b                sta $9b
eae8   20 bc 00             jsr $00bc
eaeb   4c d2 ea             jmp lead2
eaee   a6 9b      leaee     ldx $9b
eaf0   d0 2c                bne leb1e
eaf2   b0 78                bcs leb6c
eaf4   69 07                adc #$07
eaf6   90 74                bcc leb6c
eaf8   65 5f                adc $5f
eafa   d0 03                bne leaff
eafc   4c 41 f2             jmp lf241
eaff   69 ff      leaff     adc #$ff
eb01   85 71                sta $71
eb03   0a                   asl a
eb04   65 71                adc $71
eb06   a8                   tay
eb07   68         leb07     pla
eb08   d9 66 e0             cmp $e066,y
eb0b   b0 64                bcs leb71
eb0d   20 a4 ea             jsr leaa4
eb10   48         leb10     pha
eb11   20 37 eb   leb11     jsr leb37
eb14   68                   pla
eb15   a4 99                ldy $99
eb17   10 17                bpl leb30
eb19   aa                   tax
eb1a   f0 53                beq leb6f
eb1c   d0 5c                bne leb7a
eb1e   46 5f      leb1e     lsr $5f
eb20   8a                   txa
eb21   2a                   rol a
eb22   a6 c3                ldx $c3
eb24   d0 02                bne leb28
eb26   c6 c4                dec $c4
eb28   c6 c3      leb28     dec $c3
eb2a   a0 1b                ldy #$1b
eb2c   85 9b                sta $9b
eb2e   d0 d7                bne leb07
eb30   d9 66 e0   leb30     cmp $e066,y
eb33   b0 45                bcs leb7a
eb35   90 d9                bcc leb10
eb37   b9 68 e0   leb37     lda $e068,y
eb3a   48                   pha
eb3b   b9 67 e0             lda $e067,y
eb3e   48                   pha
eb3f   20 4a eb             jsr leb4a
eb42   a5 9b                lda $9b
eb44   4c c0 ea             jmp leac0
eb47   4c 00 ec   leb47     jmp lec00
eb4a   a5 b0      leb4a     lda $b0
eb4c   be 66 e0             ldx $e066,y
eb4f   a8         leb4f     tay
eb50   68                   pla
eb51   85 71                sta $71
eb53   e6 71                inc $71
eb55   68                   pla
eb56   85 72                sta $72
eb58   98                   tya
eb59   48                   pha
eb5a   20 ae f7   leb5a     jsr lf7ae
eb5d   a5 af                lda $af
eb5f   48                   pha
eb60   a5 ae                lda $ae
eb62   48                   pha
eb63   a5 ad                lda $ad
eb65   48                   pha
eb66   a5 ac                lda $ac
eb68   48                   pha
eb69   6c 71 00             jmp ($0071)
eb6c   a0 ff      leb6c     ldy #$ff
eb6e   68                   pla
eb6f   f0 20      leb6f     beq leb91
eb71   c9 64      leb71     cmp #$64
eb73   f0 03                beq leb78
eb75   20 a4 ea             jsr leaa4
eb78   84 99      leb78     sty $99
eb7a   68         leb7a     pla
eb7b   4a                   lsr a
eb7c   85 63                sta $63
eb7e   68                   pla
eb7f   85 b3                sta $b3
eb81   68                   pla
eb82   85 b4                sta $b4
eb84   68                   pla
eb85   85 b5                sta $b5
eb87   68                   pla
eb88   85 b6                sta $b6
eb8a   68                   pla
eb8b   85 b7                sta $b7
eb8d   45 b0                eor $b0
eb8f   85 b8                sta $b8
eb91   a5 ac      leb91     lda $ac
eb93   60                   rts
eb94   a9 00      leb94     lda #$00
eb96   85 5f                sta $5f
eb98   20 bc 00   leb98     jsr $00bc
eb9b   b0 03                bcs leba0
eb9d   4c 7b f8   leb9d     jmp lf87b
eba0   20 75 ed   leba0     jsr led75
eba3   b0 67                bcs lec0c
eba5   c9 2e                cmp #$2e
eba7   f0 f4                beq leb9d
eba9   c9 a4                cmp #$a4
ebab   f0 58                beq lec05
ebad   c9 a3                cmp #$a3
ebaf   f0 e7                beq leb98
ebb1   c9 22                cmp #$22
ebb3   d0 0f                bne lebc4
ebb5   a5 c3      lebb5     lda $c3
ebb7   a4 c4                ldy $c4
ebb9   69 00                adc #$00
ebbb   90 01                bcc lebbe
ebbd   c8                   iny
ebbe   20 a2 f0   lebbe     jsr lf0a2
ebc1   4c e7 f3             jmp lf3e7
ebc4   c9 a1      lebc4     cmp #$a1
ebc6   d0 13                bne lebdb
ebc8   a0 18                ldy #$18
ebca   d0 3b                bne lec07
ebcc   20 f9 ed             jsr ledf9
ebcf   a5 af                lda $af
ebd1   49 ff                eor #$ff
ebd3   a8                   tay
ebd4   a5 ae                lda $ae
ebd6   49 ff                eor #$ff
ebd8   4c b5 ef             jmp lefb5
ebdb   c9 9e      lebdb     cmp #$9e
ebdd   d0 03                bne lebe2
ebdf   4c 12 f0             jmp lf012
ebe2   c9 ad      lebe2     cmp #$ad
ebe4   90 03                bcc lebe9
ebe6   4c 1b ec             jmp lec1b
ebe9   20 f2 eb   lebe9     jsr lebf2
ebec   20 b5 ea             jsr leab5
ebef   a9 29      lebef     lda #$29
ebf1   2c a9 28             bit $28a9
ebf4   2c a9 2c             bit $2ca9
ebf7   a0 00      lebf7     ldy #$00
ebf9   d1 c3                cmp ($c3),y
ebfb   d0 03                bne lec00
ebfd   4c bc 00             jmp $00bc
ec00   a2 02      lec00     ldx #$02
ec02   4c 4e e2             jmp le24e
ec05   a0 15      lec05     ldy #$15
ec07   68         lec07     pla
ec08   68                   pla
ec09   4c 11 eb             jmp leb11
ec0c   20 ff ec   lec0c     jsr lecff
ec0f   85 ae                sta $ae
ec11   84 af                sty $af
ec13   a6 5f                ldx $5f
ec15   f0 01                beq lec18
ec17   60                   rts
ec18   4c 3f f7   lec18     jmp lf73f
ec1b   0a         lec1b     asl a
ec1c   48                   pha
ec1d   aa                   tax
ec1e   20 bc 00             jsr $00bc
ec21   e0 81                cpx #$81
ec23   90 20                bcc lec45
ec25   20 f2 eb             jsr lebf2
ec28   20 b5 ea             jsr leab5
ec2b   20 f5 eb             jsr lebf5
ec2e   20 a6 ea             jsr leaa6
ec31   68                   pla
ec32   aa                   tax
ec33   a5 af                lda $af
ec35   48                   pha
ec36   a5 ae                lda $ae
ec38   48                   pha
ec39   8a                   txa
ec3a   48                   pha
ec3b   20 a2 f3             jsr lf3a2
ec3e   68                   pla
ec3f   a8                   tay
ec40   8a                   txa
ec41   48                   pha
ec42   4c 4a ec             jmp lec4a
ec45   20 e9 eb   lec45     jsr lebe9
ec48   68                   pla
ec49   a8                   tay
ec4a   b9 de df   lec4a     lda $dfde,y
ec4d   85 a2                sta $a2
ec4f   b9 df df             lda $dfdf,y
ec52   85 a3                sta $a3
ec54   20 a1 00             jsr $00a1
ec57   4c a4 ea             jmp leaa4
ec5a   a0 ff                ldy #$ff
ec5c   2c a0 00             bit $00a0
ec5f   84 5d                sty $5d
ec61   20 f9 ed             jsr ledf9
ec64   a5 ae                lda $ae
ec66   45 5d                eor $5d
ec68   85 5b                sta $5b
ec6a   a5 af                lda $af
ec6c   45 5d                eor $5d
ec6e   85 5c                sta $5c
ec70   20 8f f7             jsr lf78f
ec73   20 f9 ed             jsr ledf9
ec76   a5 af                lda $af
ec78   45 5d                eor $5d
ec7a   25 5c                and $5c
ec7c   45 5d                eor $5d
ec7e   a8                   tay
ec7f   a5 ae                lda $ae
ec81   45 5d                eor $5d
ec83   25 5b                and $5b
ec85   45 5d                eor $5d
ec87   4c b5 ef             jmp lefb5
ec8a   20 a7 ea             jsr leaa7
ec8d   b0 13                bcs leca2
ec8f   a5 b7                lda $b7
ec91   09 7f                ora #$7f
ec93   25 b4                and $b4
ec95   85 b4                sta $b4
ec97   a9 b3                lda #$b3
ec99   a0 00                ldy #$00
ec9b   20 ec f7             jsr lf7ec
ec9e   aa                   tax
ec9f   4c d5 ec             jmp lecd5
eca2   a9 00      leca2     lda #$00
eca4   85 5f                sta $5f
eca6   c6 9b                dec $9b
eca8   20 aa f2             jsr lf2aa
ecab   85 ac                sta $ac
ecad   86 ad                stx $ad
ecaf   84 ae                sty $ae
ecb1   a5 b5                lda $b5
ecb3   a4 b6                ldy $b6
ecb5   20 ae f2             jsr lf2ae
ecb8   86 b5                stx $b5
ecba   84 b6                sty $b6
ecbc   aa                   tax
ecbd   38                   sec
ecbe   e5 ac                sbc $ac
ecc0   f0 08                beq lecca
ecc2   a9 01                lda #$01
ecc4   90 04                bcc lecca
ecc6   a6 ac                ldx $ac
ecc8   a9 ff                lda #$ff
ecca   85 b0      lecca     sta $b0
eccc   a0 ff                ldy #$ff
ecce   e8                   inx
eccf   c8         leccf     iny
ecd0   ca                   dex
ecd1   d0 07                bne lecda
ecd3   a6 b0                ldx $b0
ecd5   30 0f      lecd5     bmi lece6
ecd7   18                   clc
ecd8   90 0c                bcc lece6
ecda   b1 b5      lecda     lda ($b5),y
ecdc   d1 ad                cmp ($ad),y
ecde   f0 ef                beq leccf
ece0   a2 ff                ldx #$ff
ece2   b0 02                bcs lece6
ece4   a2 01                ldx #$01
ece6   e8         lece6     inx
ece7   8a                   txa
ece8   2a                   rol a
ece9   25 63                and $63
eceb   f0 02                beq lecef
eced   a9 ff                lda #$ff
ecef   4c cf f7   lecef     jmp lf7cf
ecf2   20 f5 eb   lecf2     jsr lebf5
ecf5   aa                   tax
ecf6   20 04 ed             jsr led04
ecf9   20 c2 00             jsr $00c2
ecfc   d0 f4                bne lecf2
ecfe   60                   rts
ecff   a2 00      lecff     ldx #$00
ed01   20 c2 00             jsr $00c2
ed04   86 5e      led04     stx $5e
ed06   85 93      led06     sta $93
ed08   20 c2 00             jsr $00c2
ed0b   20 75 ed             jsr led75
ed0e   b0 03                bcs led13
ed10   4c 00 ec             jmp lec00
ed13   a2 00      led13     ldx #$00
ed15   86 5f                stx $5f
ed17   20 bc 00             jsr $00bc
ed1a   90 05                bcc led21
ed1c   20 75 ed             jsr led75
ed1f   90 0b                bcc led2c
ed21   aa         led21     tax
ed22   20 bc 00   led22     jsr $00bc
ed25   90 fb                bcc led22
ed27   20 75 ed             jsr led75
ed2a   b0 f6                bcs led22
ed2c   c9 24      led2c     cmp #$24
ed2e   d0 0b                bne led3b
ed30   a9 ff                lda #$ff
ed32   85 5f                sta $5f
ed34   8a                   txa
ed35   09 80                ora #$80
ed37   aa                   tax
ed38   20 bc 00             jsr $00bc
ed3b   86 94      led3b     stx $94
ed3d   38                   sec
ed3e   05 61                ora $61
ed40   e9 28                sbc #$28
ed42   d0 03                bne led47
ed44   4c 0b ee             jmp lee0b
ed47   a9 00      led47     lda #$00
ed49   85 61                sta $61
ed4b   a5 7b                lda $7b
ed4d   a6 7c                ldx $7c
ed4f   a0 00                ldy #$00
ed51   86 ab      led51     stx $ab
ed53   85 aa      led53     sta $aa
ed55   e4 7e                cpx $7e
ed57   d0 04                bne led5d
ed59   c5 7d                cmp $7d
ed5b   f0 22                beq led7f
ed5d   a5 93      led5d     lda $93
ed5f   d1 aa                cmp ($aa),y
ed61   d0 08                bne led6b
ed63   a5 94                lda $94
ed65   c8                   iny
ed66   d1 aa                cmp ($aa),y
ed68   f0 61                beq ledcb
ed6a   88                   dey
ed6b   18         led6b     clc
ed6c   a5 aa                lda $aa
ed6e   69 06                adc #$06
ed70   90 e1                bcc led53
ed72   e8                   inx
ed73   d0 dc                bne led51
ed75   c9 41      led75     cmp #$41
ed77   90 05                bcc led7e
ed79   e9 5b                sbc #$5b
ed7b   38                   sec
ed7c   e9 a5                sbc #$a5
ed7e   60         led7e     rts
ed7f   68         led7f     pla
ed80   48                   pha
ed81   c9 0e                cmp #$0e
ed83   d0 07                bne led8c
ed85   a9 8a                lda #$8a
ed87   a0 ed                ldy #$ed
ed89   60                   rts
ed8a   00                   brk
ed8b   00                   brk
ed8c   a5 7d      led8c     lda $7d
ed8e   a4 7e                ldy $7e
ed90   85 aa                sta $aa
ed92   84 ab                sty $ab
ed94   a5 7f                lda $7f
ed96   a4 80                ldy $80
ed98   85 a6                sta $a6
ed9a   84 a7                sty $a7
ed9c   18                   clc
ed9d   69 06                adc #$06
ed9f   90 01                bcc leda2
eda1   c8                   iny
eda2   85 a4      leda2     sta $a4
eda4   84 a5                sty $a5
eda6   20 cf e1             jsr le1cf
eda9   a5 a4                lda $a4
edab   a4 a5                ldy $a5
edad   c8                   iny
edae   85 7d                sta $7d
edb0   84 7e                sty $7e
edb2   a0 00                ldy #$00
edb4   a5 93                lda $93
edb6   91 aa                sta ($aa),y
edb8   c8                   iny
edb9   a5 94                lda $94
edbb   91 aa                sta ($aa),y
edbd   a9 00                lda #$00
edbf   c8                   iny
edc0   91 aa                sta ($aa),y
edc2   c8                   iny
edc3   91 aa                sta ($aa),y
edc5   c8                   iny
edc6   91 aa                sta ($aa),y
edc8   c8                   iny
edc9   91 aa                sta ($aa),y
edcb   a5 aa      ledcb     lda $aa
edcd   18                   clc
edce   69 02                adc #$02
edd0   a4 ab                ldy $ab
edd2   90 01                bcc ledd5
edd4   c8                   iny
edd5   85 95      ledd5     sta $95
edd7   84 96                sty $96
edd9   60                   rts
edda   a5 5d      ledda     lda $5d
eddc   0a                   asl a
eddd   69 05                adc #$05
eddf   65 aa                adc $aa
ede1   a4 ab                ldy $ab
ede3   90 01                bcc lede6
ede5   c8                   iny
ede6   85 a4      lede6     sta $a4
ede8   84 a5                sty $a5
edea   60                   rts
edeb   90 80                bcc led6d
eded   00                   brk
edee   00                   brk
edef   20 bc 00   ledef     jsr $00bc
edf2   20 a1 ea             jsr leaa1
edf5   a5 b0      ledf5     lda $b0
edf7   30 0d                bmi lee06
edf9   a5 ac      ledf9     lda $ac
edfb   c9 90                cmp #$90
edfd   90 09                bcc lee08
edff   a9 eb                lda #$eb
ee01   a0 ed                ldy #$ed
ee03   20 ec f7             jsr lf7ec
ee06   d0 74      lee06     bne lee7c
ee08   4c 25 f8   lee08     jmp lf825
ee0b   a5 5e      lee0b     lda $5e
ee0d   48                   pha
ee0e   a5 5f                lda $5f
ee10   48                   pha
ee11   a0 00                ldy #$00
ee13   98         lee13     tya
ee14   48                   pha
ee15   a5 94                lda $94
ee17   48                   pha
ee18   a5 93                lda $93
ee1a   48                   pha
ee1b   20 ef ed             jsr ledef
ee1e   68                   pla
ee1f   85 93                sta $93
ee21   68                   pla
ee22   85 94                sta $94
ee24   68                   pla
ee25   a8                   tay
ee26   ba                   tsx
ee27   bd 02 01             lda $0102,x
ee2a   48                   pha
ee2b   bd 01 01             lda $0101,x
ee2e   48                   pha
ee2f   a5 ae                lda $ae
ee31   9d 02 01             sta $0102,x
ee34   a5 af                lda $af
ee36   9d 01 01             sta $0101,x
ee39   c8                   iny
ee3a   20 c2 00             jsr $00c2
ee3d   c9 2c                cmp #$2c
ee3f   f0 d2                beq lee13
ee41   84 5d                sty $5d
ee43   20 ef eb             jsr lebef
ee46   68                   pla
ee47   85 5f                sta $5f
ee49   68                   pla
ee4a   85 5e                sta $5e
ee4c   a6 7d                ldx $7d
ee4e   a5 7e                lda $7e
ee50   86 aa      lee50     stx $aa
ee52   85 ab                sta $ab
ee54   c5 80                cmp $80
ee56   d0 04                bne lee5c
ee58   e4 7f                cpx $7f
ee5a   f0 39                beq lee95
ee5c   a0 00      lee5c     ldy #$00
ee5e   b1 aa                lda ($aa),y
ee60   c8                   iny
ee61   c5 93                cmp $93
ee63   d0 06                bne lee6b
ee65   a5 94                lda $94
ee67   d1 aa                cmp ($aa),y
ee69   f0 16                beq lee81
ee6b   c8         lee6b     iny
ee6c   b1 aa                lda ($aa),y
ee6e   18                   clc
ee6f   65 aa                adc $aa
ee71   aa                   tax
ee72   c8                   iny
ee73   b1 aa                lda ($aa),y
ee75   65 ab                adc $ab
ee77   90 d7                bcc lee50
ee79   a2 10      lee79     ldx #$10
ee7b   2c a2 08             bit $08a2
ee7e   4c 4e e2   lee7e     jmp le24e
ee81   a2 12      lee81     ldx #$12
ee83   a5 5e                lda $5e
ee85   d0 f7                bne lee7e
ee87   20 da ed             jsr ledda
ee8a   a5 5d                lda $5d
ee8c   a0 04                ldy #$04
ee8e   d1 aa                cmp ($aa),y
ee90   d0 e7                bne lee79
ee92   4c 18 ef             jmp lef18
ee95   20 da ed   lee95     jsr ledda
ee98   20 1f e2             jsr le21f
ee9b   a9 00                lda #$00
ee9d   a8                   tay
ee9e   85 bb                sta $bb
eea0   a2 04                ldx #$04
eea2   86 ba                stx $ba
eea4   a5 93                lda $93
eea6   91 aa                sta ($aa),y
eea8   c8                   iny
eea9   a5 94                lda $94
eeab   91 aa                sta ($aa),y
eead   a5 5d                lda $5d
eeaf   c8                   iny
eeb0   c8                   iny
eeb1   c8                   iny
eeb2   91 aa                sta ($aa),y
eeb4   a2 0b      leeb4     ldx #$0b
eeb6   a9 00                lda #$00
eeb8   24 5e                bit $5e
eeba   50 08                bvc leec4
eebc   68                   pla
eebd   18                   clc
eebe   69 01                adc #$01
eec0   aa                   tax
eec1   68                   pla
eec2   69 00                adc #$00
eec4   c8         leec4     iny
eec5   91 aa                sta ($aa),y
eec7   c8                   iny
eec8   8a                   txa
eec9   91 aa                sta ($aa),y
eecb   20 70 ef             jsr lef70
eece   86 ba                stx $ba
eed0   85 bb                sta $bb
eed2   a4 71                ldy $71
eed4   c6 5d                dec $5d
eed6   d0 dc                bne leeb4
eed8   65 a5                adc $a5
eeda   b0 5d                bcs lef39
eedc   85 a5                sta $a5
eede   a8                   tay
eedf   8a                   txa
eee0   65 a4                adc $a4
eee2   90 03                bcc leee7
eee4   c8                   iny
eee5   f0 52                beq lef39
eee7   20 1f e2   leee7     jsr le21f
eeea   85 7f                sta $7f
eeec   84 80                sty $80
eeee   a9 00                lda #$00
eef0   e6 bb                inc $bb
eef2   a4 ba                ldy $ba
eef4   f0 05                beq leefb
eef6   88         leef6     dey
eef7   91 a4                sta ($a4),y
eef9   d0 fb                bne leef6
eefb   c6 a5      leefb     dec $a5
eefd   c6 bb                dec $bb
eeff   d0 f5                bne leef6
ef01   e6 a5                inc $a5
ef03   38                   sec
ef04   a5 7f                lda $7f
ef06   e5 aa                sbc $aa
ef08   a0 02                ldy #$02
ef0a   91 aa                sta ($aa),y
ef0c   a5 80                lda $80
ef0e   c8                   iny
ef0f   e5 ab                sbc $ab
ef11   91 aa                sta ($aa),y
ef13   a5 5e                lda $5e
ef15   d0 58                bne lef6f
ef17   c8                   iny
ef18   b1 aa      lef18     lda ($aa),y
ef1a   85 5d                sta $5d
ef1c   a9 00                lda #$00
ef1e   85 ba                sta $ba
ef20   85 bb      lef20     sta $bb
ef22   c8                   iny
ef23   68                   pla
ef24   aa                   tax
ef25   85 ae                sta $ae
ef27   68                   pla
ef28   85 af                sta $af
ef2a   d1 aa                cmp ($aa),y
ef2c   90 0e                bcc lef3c
ef2e   d0 06                bne lef36
ef30   c8                   iny
ef31   8a                   txa
ef32   d1 aa                cmp ($aa),y
ef34   90 07                bcc lef3d
ef36   4c 79 ee   lef36     jmp lee79
ef39   4c 4c e2   lef39     jmp le24c
ef3c   c8         lef3c     iny
ef3d   a5 bb      lef3d     lda $bb
ef3f   05 ba                ora $ba
ef41   18                   clc
ef42   f0 0a                beq lef4e
ef44   20 70 ef             jsr lef70
ef47   8a                   txa
ef48   65 ae                adc $ae
ef4a   aa                   tax
ef4b   98                   tya
ef4c   a4 71                ldy $71
ef4e   65 af      lef4e     adc $af
ef50   86 ba                stx $ba
ef52   c6 5d                dec $5d
ef54   d0 ca                bne lef20
ef56   06 ba                asl $ba
ef58   2a                   rol a
ef59   b0 db                bcs lef36
ef5b   06 ba                asl $ba
ef5d   2a                   rol a
ef5e   b0 d6                bcs lef36
ef60   a8                   tay
ef61   a5 ba                lda $ba
ef63   65 a4                adc $a4
ef65   85 95                sta $95
ef67   98                   tya
ef68   65 a5                adc $a5
ef6a   85 96                sta $96
ef6c   a8                   tay
ef6d   a5 95                lda $95
ef6f   60         lef6f     rts
ef70   84 71      lef70     sty $71
ef72   b1 aa                lda ($aa),y
ef74   85 76                sta $76
ef76   88                   dey
ef77   b1 aa                lda ($aa),y
ef79   85 77                sta $77
ef7b   a9 10                lda #$10
ef7d   85 a8                sta $a8
ef7f   a2 00                ldx #$00
ef81   a0 00                ldy #$00
ef83   8a         lef83     txa
ef84   0a                   asl a
ef85   aa                   tax
ef86   98                   tya
ef87   2a                   rol a
ef88   a8                   tay
ef89   b0 ae                bcs lef39
ef8b   06 ba                asl $ba
ef8d   26 bb                rol $bb
ef8f   90 0b                bcc lef9c
ef91   18                   clc
ef92   8a                   txa
ef93   65 76                adc $76
ef95   aa                   tax
ef96   98                   tya
ef97   65 77                adc $77
ef99   a8                   tay
ef9a   b0 9d                bcs lef39
ef9c   c6 a8      lef9c     dec $a8
ef9e   d0 e3                bne lef83
efa0   60                   rts
efa1   a5 5f                lda $5f
efa3   f0 03                beq lefa8
efa5   20 aa f2             jsr lf2aa
efa8   20 3b f1   lefa8     jsr lf13b
efab   38                   sec
efac   a5 81                lda $81
efae   e5 7f                sbc $7f
efb0   a8                   tay
efb1   a5 82                lda $82
efb3   e5 80                sbc $80
efb5   a2 00      lefb5     ldx #$00
efb7   86 5f                stx $5f
efb9   85 ad                sta $ad
efbb   84 ae                sty $ae
efbd   a2 90                ldx #$90
efbf   4c d7 f7             jmp lf7d7
efc2   a4 0e                ldy $0e
efc4   a9 00      lefc4     lda #$00
efc6   f0 ed                beq lefb5
efc8   a6 88      lefc8     ldx $88
efca   e8                   inx
efcb   d0 a2                bne lef6f
efcd   a2 16                ldx #$16
efcf   4c 4e e2   lefcf     jmp le24e
efd2   20 ff ef             jsr lefff
efd5   20 c8 ef             jsr lefc8
efd8   20 f2 eb             jsr lebf2
efdb   a9 80                lda #$80
efdd   85 61                sta $61
efdf   20 ff ec             jsr lecff
efe2   20 a4 ea             jsr leaa4
efe5   20 ef eb             jsr lebef
efe8   a9 ab                lda #$ab
efea   20 f7 eb             jsr lebf7
efed   a5 96                lda $96
efef   48                   pha
eff0   a5 95                lda $95
eff2   48                   pha
eff3   a5 c4                lda $c4
eff5   48                   pha
eff6   a5 c3                lda $c3
eff8   48                   pha
eff9   20 00 e7             jsr le700
effc   4c 6e f0             jmp lf06e
efff   a9 9e      lefff     lda #$9e
f001   20 f7 eb             jsr lebf7
f004   09 80                ora #$80
f006   85 61                sta $61
f008   20 06 ed             jsr led06
f00b   85 9c                sta $9c
f00d   84 9d                sty $9d
f00f   4c a4 ea             jmp leaa4
f012   20 ff ef   lf012     jsr lefff
f015   a5 9d                lda $9d
f017   48                   pha
f018   a5 9c                lda $9c
f01a   48                   pha
f01b   20 e9 eb             jsr lebe9
f01e   20 a4 ea             jsr leaa4
f021   68                   pla
f022   85 9c                sta $9c
f024   68                   pla
f025   85 9d                sta $9d
f027   a0 02                ldy #$02
f029   a2 20                ldx #$20
f02b   b1 9c                lda ($9c),y
f02d   f0 a0                beq lefcf
f02f   85 95                sta $95
f031   aa                   tax
f032   c8                   iny
f033   b1 9c                lda ($9c),y
f035   85 96                sta $96
f037   b1 95      lf037     lda ($95),y
f039   48                   pha
f03a   88                   dey
f03b   10 fa                bpl lf037
f03d   a4 96                ldy $96
f03f   20 6c f7             jsr lf76c
f042   a5 c4                lda $c4
f044   48                   pha
f045   a5 c3                lda $c3
f047   48                   pha
f048   b1 9c                lda ($9c),y
f04a   85 c3                sta $c3
f04c   c8                   iny
f04d   b1 9c                lda ($9c),y
f04f   85 c4                sta $c4
f051   a5 96                lda $96
f053   48                   pha
f054   a5 95                lda $95
f056   48                   pha
f057   20 a1 ea             jsr leaa1
f05a   68                   pla
f05b   85 9c                sta $9c
f05d   68                   pla
f05e   85 9d                sta $9d
f060   20 c2 00             jsr $00c2
f063   f0 03                beq lf068
f065   4c 00 ec             jmp lec00
f068   68         lf068     pla
f069   85 c3                sta $c3
f06b   68                   pla
f06c   85 c4                sta $c4
f06e   a0 00      lf06e     ldy #$00
f070   68                   pla
f071   91 9c                sta ($9c),y
f073   68                   pla
f074   c8                   iny
f075   91 9c                sta ($9c),y
f077   68                   pla
f078   c8                   iny
f079   91 9c                sta ($9c),y
f07b   68                   pla
f07c   c8                   iny
f07d   91 9c                sta ($9c),y
f07f   60                   rts
f080   20 a4 ea             jsr leaa4
f083   a0 00                ldy #$00
f085   20 64 f9             jsr lf964
f088   68                   pla
f089   68                   pla
f08a   a9 ff                lda #$ff
f08c   a0 00                ldy #$00
f08e   f0 12                beq lf0a2
f090   a6 ae      lf090     ldx $ae
f092   a4 af                ldy $af
f094   86 9e                stx $9e
f096   84 9f                sty $9f
f098   20 09 f1   lf098     jsr lf109
f09b   86 ad                stx $ad
f09d   84 ae                sty $ae
f09f   85 ac                sta $ac
f0a1   60                   rts
f0a2   a2 22      lf0a2     ldx #$22
f0a4   86 5b                stx $5b
f0a6   86 5c                stx $5c
f0a8   85 b8      lf0a8     sta $b8
f0aa   84 b9                sty $b9
f0ac   85 ad                sta $ad
f0ae   84 ae                sty $ae
f0b0   a0 ff                ldy #$ff
f0b2   c8         lf0b2     iny
f0b3   b1 b8                lda ($b8),y
f0b5   f0 0c                beq lf0c3
f0b7   c5 5b                cmp $5b
f0b9   f0 04                beq lf0bf
f0bb   c5 5c                cmp $5c
f0bd   d0 f3                bne lf0b2
f0bf   c9 22      lf0bf     cmp #$22
f0c1   f0 01                beq lf0c4
f0c3   18         lf0c3     clc
f0c4   84 ac      lf0c4     sty $ac
f0c6   98                   tya
f0c7   65 b8                adc $b8
f0c9   85 ba                sta $ba
f0cb   a6 b9                ldx $b9
f0cd   90 01                bcc lf0d0
f0cf   e8                   inx
f0d0   86 bb      lf0d0     stx $bb
f0d2   a5 b9                lda $b9
f0d4   d0 0b                bne lf0e1
f0d6   98                   tya
f0d7   20 90 f0             jsr lf090
f0da   a6 b8                ldx $b8
f0dc   a4 b9                ldy $b9
f0de   20 8c f2             jsr lf28c
f0e1   a6 65      lf0e1     ldx $65
f0e3   e0 71                cpx #$71
f0e5   d0 05                bne lf0ec
f0e7   a2 1c                ldx #$1c
f0e9   4c 4e e2   lf0e9     jmp le24e
f0ec   a5 ac      lf0ec     lda $ac
f0ee   95 00                sta $00,x
f0f0   a5 ad                lda $ad
f0f2   95 01                sta $01,x
f0f4   a5 ae                lda $ae
f0f6   95 02                sta $02,x
f0f8   a0 00                ldy #$00
f0fa   86 ae                stx $ae
f0fc   84 af                sty $af
f0fe   88                   dey
f0ff   84 5f                sty $5f
f101   86 66                stx $66
f103   e8                   inx
f104   e8                   inx
f105   e8                   inx
f106   86 65                stx $65
f108   60                   rts
f109   46 60      lf109     lsr $60
f10b   48         lf10b     pha
f10c   49 ff                eor #$ff
f10e   38                   sec
f10f   65 81                adc $81
f111   a4 82                ldy $82
f113   b0 01                bcs lf116
f115   88                   dey
f116   c4 80      lf116     cpy $80
f118   90 11                bcc lf12b
f11a   d0 04                bne lf120
f11c   c5 7f                cmp $7f
f11e   90 0b                bcc lf12b
f120   85 81      lf120     sta $81
f122   84 82                sty $82
f124   85 83                sta $83
f126   84 84                sty $84
f128   aa                   tax
f129   68                   pla
f12a   60                   rts
f12b   a2 0c      lf12b     ldx #$0c
f12d   a5 60                lda $60
f12f   30 b8                bmi lf0e9
f131   20 3b f1             jsr lf13b
f134   a9 80                lda #$80
f136   85 60                sta $60
f138   68                   pla
f139   d0 d0                bne lf10b
f13b   a6 85      lf13b     ldx $85
f13d   a5 86                lda $86
f13f   86 81      lf13f     stx $81
f141   85 82                sta $82
f143   a0 00                ldy #$00
f145   84 9d                sty $9d
f147   a5 7f                lda $7f
f149   a6 80                ldx $80
f14b   85 aa                sta $aa
f14d   86 ab                stx $ab
f14f   a9 68                lda #$68
f151   a2 00                ldx #$00
f153   85 71                sta $71
f155   86 72                stx $72
f157   c5 65      lf157     cmp $65
f159   f0 05                beq lf160
f15b   20 cd f1             jsr lf1cd
f15e   f0 f7                beq lf157
f160   a9 06      lf160     lda #$06
f162   85 a0                sta $a0
f164   a5 7b                lda $7b
f166   a6 7c                ldx $7c
f168   85 71                sta $71
f16a   86 72                stx $72
f16c   e4 7e      lf16c     cpx $7e
f16e   d0 04                bne lf174
f170   c5 7d                cmp $7d
f172   f0 05                beq lf179
f174   20 c7 f1   lf174     jsr lf1c7
f177   f0 f3                beq lf16c
f179   85 a4      lf179     sta $a4
f17b   86 a5                stx $a5
f17d   a9 03                lda #$03
f17f   85 a0                sta $a0
f181   a5 a4      lf181     lda $a4
f183   a6 a5                ldx $a5
f185   e4 80      lf185     cpx $80
f187   d0 07                bne lf190
f189   c5 7f                cmp $7f
f18b   d0 03                bne lf190
f18d   4c 0c f2             jmp lf20c
f190   85 71      lf190     sta $71
f192   86 72                stx $72
f194   a0 01                ldy #$01
f196   b1 71                lda ($71),y
f198   08                   php
f199   c8                   iny
f19a   b1 71                lda ($71),y
f19c   65 a4                adc $a4
f19e   85 a4                sta $a4
f1a0   c8                   iny
f1a1   b1 71                lda ($71),y
f1a3   65 a5                adc $a5
f1a5   85 a5                sta $a5
f1a7   28                   plp
f1a8   10 d7                bpl lf181
f1aa   c8                   iny
f1ab   b1 71                lda ($71),y
f1ad   0a                   asl a
f1ae   69 05                adc #$05
f1b0   65 71                adc $71
f1b2   85 71                sta $71
f1b4   90 02                bcc lf1b8
f1b6   e6 72                inc $72
f1b8   a6 72      lf1b8     ldx $72
f1ba   e4 a5      lf1ba     cpx $a5
f1bc   d0 04                bne lf1c2
f1be   c5 a4                cmp $a4
f1c0   f0 c3                beq lf185
f1c2   20 cd f1   lf1c2     jsr lf1cd
f1c5   f0 f3                beq lf1ba
f1c7   c8         lf1c7     iny
f1c8   b1 71                lda ($71),y
f1ca   10 30                bpl lf1fc
f1cc   c8                   iny
f1cd   b1 71      lf1cd     lda ($71),y
f1cf   f0 2b                beq lf1fc
f1d1   c8                   iny
f1d2   b1 71                lda ($71),y
f1d4   aa                   tax
f1d5   c8                   iny
f1d6   b1 71                lda ($71),y
f1d8   c5 82                cmp $82
f1da   90 06                bcc lf1e2
f1dc   d0 1e                bne lf1fc
f1de   e4 81                cpx $81
f1e0   b0 1a                bcs lf1fc
f1e2   c5 ab      lf1e2     cmp $ab
f1e4   90 16                bcc lf1fc
f1e6   d0 04                bne lf1ec
f1e8   e4 aa                cpx $aa
f1ea   90 10                bcc lf1fc
f1ec   86 aa      lf1ec     stx $aa
f1ee   85 ab                sta $ab
f1f0   a5 71                lda $71
f1f2   a6 72                ldx $72
f1f4   85 9c                sta $9c
f1f6   86 9d                stx $9d
f1f8   a5 a0                lda $a0
f1fa   85 a2                sta $a2
f1fc   a5 a0      lf1fc     lda $a0
f1fe   18                   clc
f1ff   65 71                adc $71
f201   85 71                sta $71
f203   90 02                bcc lf207
f205   e6 72                inc $72
f207   a6 72      lf207     ldx $72
f209   a0 00                ldy #$00
f20b   60                   rts
f20c   a6 9d      lf20c     ldx $9d
f20e   f0 f7                beq lf207
f210   a5 a2                lda $a2
f212   29 04                and #$04
f214   4a                   lsr a
f215   a8                   tay
f216   85 a2                sta $a2
f218   b1 9c                lda ($9c),y
f21a   65 aa                adc $aa
f21c   85 a6                sta $a6
f21e   a5 ab                lda $ab
f220   69 00                adc #$00
f222   85 a7                sta $a7
f224   a5 81                lda $81
f226   a6 82                ldx $82
f228   85 a4                sta $a4
f22a   86 a5                stx $a5
f22c   20 d6 e1             jsr le1d6
f22f   a4 a2                ldy $a2
f231   c8                   iny
f232   a5 a4                lda $a4
f234   91 9c                sta ($9c),y
f236   aa                   tax
f237   e6 a5                inc $a5
f239   a5 a5                lda $a5
f23b   c8                   iny
f23c   91 9c                sta ($9c),y
f23e   4c 3f f1             jmp lf13f
f241   a5 af      lf241     lda $af
f243   48                   pha
f244   a5 ae                lda $ae
f246   48                   pha
f247   20 94 eb             jsr leb94
f24a   20 a6 ea             jsr leaa6
f24d   68                   pla
f24e   85 b8                sta $b8
f250   68                   pla
f251   85 b9                sta $b9
f253   a0 00                ldy #$00
f255   b1 b8                lda ($b8),y
f257   18                   clc
f258   71 ae                adc ($ae),y
f25a   90 05                bcc lf261
f25c   a2 1a                ldx #$1a
f25e   4c 4e e2             jmp le24e
f261   20 90 f0   lf261     jsr lf090
f264   20 7e f2             jsr lf27e
f267   a5 9e                lda $9e
f269   a4 9f                ldy $9f
f26b   20 ae f2             jsr lf2ae
f26e   20 90 f2             jsr lf290
f271   a5 b8                lda $b8
f273   a4 b9                ldy $b9
f275   20 ae f2             jsr lf2ae
f278   20 e1 f0             jsr lf0e1
f27b   4c cf ea             jmp leacf
f27e   a0 00      lf27e     ldy #$00
f280   b1 b8                lda ($b8),y
f282   48                   pha
f283   c8                   iny
f284   b1 b8                lda ($b8),y
f286   aa                   tax
f287   c8                   iny
f288   b1 b8                lda ($b8),y
f28a   a8                   tay
f28b   68                   pla
f28c   86 71      lf28c     stx $71
f28e   84 72                sty $72
f290   a8         lf290     tay
f291   f0 0a                beq lf29d
f293   48                   pha
f294   88         lf294     dey
f295   b1 71                lda ($71),y
f297   91 83                sta ($83),y
f299   98                   tya
f29a   d0 f8                bne lf294
f29c   68                   pla
f29d   18         lf29d     clc
f29e   65 83                adc $83
f2a0   85 83                sta $83
f2a2   90 02                bcc lf2a6
f2a4   e6 84                inc $84
f2a6   60         lf2a6     rts
f2a7   20 a6 ea   lf2a7     jsr leaa6
f2aa   a5 ae      lf2aa     lda $ae
f2ac   a4 af                ldy $af
f2ae   85 71      lf2ae     sta $71
f2b0   84 72                sty $72
f2b2   20 df f2             jsr lf2df
f2b5   08                   php
f2b6   a0 00                ldy #$00
f2b8   b1 71                lda ($71),y
f2ba   48                   pha
f2bb   c8                   iny
f2bc   b1 71                lda ($71),y
f2be   aa                   tax
f2bf   c8                   iny
f2c0   b1 71                lda ($71),y
f2c2   a8                   tay
f2c3   68                   pla
f2c4   28                   plp
f2c5   d0 13                bne lf2da
f2c7   c4 82                cpy $82
f2c9   d0 0f                bne lf2da
f2cb   e4 81                cpx $81
f2cd   d0 0b                bne lf2da
f2cf   48                   pha
f2d0   18                   clc
f2d1   65 81                adc $81
f2d3   85 81                sta $81
f2d5   90 02                bcc lf2d9
f2d7   e6 82                inc $82
f2d9   68         lf2d9     pla
f2da   86 71      lf2da     stx $71
f2dc   84 72                sty $72
f2de   60                   rts
f2df   c4 67      lf2df     cpy $67
f2e1   d0 0c                bne lf2ef
f2e3   c5 66                cmp $66
f2e5   d0 08                bne lf2ef
f2e7   85 65                sta $65
f2e9   e9 03                sbc #$03
f2eb   85 66                sta $66
f2ed   a0 00                ldy #$00
f2ef   60         lf2ef     rts
f2f0   20 a5 f3             jsr lf3a5
f2f3   8a                   txa
f2f4   48                   pha
f2f5   a9 01                lda #$01
f2f7   20 98 f0             jsr lf098
f2fa   68                   pla
f2fb   a0 00                ldy #$00
f2fd   91 ad                sta ($ad),y
f2ff   68                   pla
f300   68                   pla
f301   4c e1 f0             jmp lf0e1
f304   20 63 f3             jsr lf363
f307   d1 9e                cmp ($9e),y
f309   98                   tya
f30a   90 04      lf30a     bcc lf310
f30c   b1 9e                lda ($9e),y
f30e   aa                   tax
f30f   98                   tya
f310   48         lf310     pha
f311   8a         lf311     txa
f312   48         lf312     pha
f313   20 98 f0             jsr lf098
f316   a5 9e                lda $9e
f318   a4 9f                ldy $9f
f31a   20 ae f2             jsr lf2ae
f31d   68                   pla
f31e   a8                   tay
f31f   68                   pla
f320   18                   clc
f321   65 71                adc $71
f323   85 71                sta $71
f325   90 02                bcc lf329
f327   e6 72                inc $72
f329   98         lf329     tya
f32a   20 90 f2             jsr lf290
f32d   4c e1 f0             jmp lf0e1
f330   20 63 f3             jsr lf363
f333   18                   clc
f334   f1 9e                sbc ($9e),y
f336   49 ff                eor #$ff
f338   4c 0a f3             jmp lf30a
f33b   a9 ff                lda #$ff
f33d   85 af                sta $af
f33f   20 c2 00             jsr $00c2
f342   c9 29                cmp #$29
f344   f0 06                beq lf34c
f346   20 f5 eb             jsr lebf5
f349   20 a2 f3             jsr lf3a2
f34c   20 63 f3   lf34c     jsr lf363
f34f   ca                   dex
f350   8a                   txa
f351   48                   pha
f352   18                   clc
f353   a2 00                ldx #$00
f355   f1 9e                sbc ($9e),y
f357   b0 b8                bcs lf311
f359   49 ff                eor #$ff
f35b   c5 af                cmp $af
f35d   90 b3                bcc lf312
f35f   a5 af                lda $af
f361   b0 af                bcs lf312
f363   20 ef eb   lf363     jsr lebef
f366   68                   pla
f367   85 a2                sta $a2
f369   68                   pla
f36a   85 a3                sta $a3
f36c   68                   pla
f36d   68                   pla
f36e   68                   pla
f36f   aa                   tax
f370   68                   pla
f371   85 9e                sta $9e
f373   68                   pla
f374   85 9f                sta $9f
f376   a0 00                ldy #$00
f378   8a                   txa
f379   f0 21                beq lf39c
f37b   e6 a2                inc $a2
f37d   6c a2 00             jmp ($00a2)
f380   20 86 f3             jsr lf386
f383   4c c4 ef   lf383     jmp lefc4
f386   20 a7 f2   lf386     jsr lf2a7
f389   a2 00                ldx #$00
f38b   86 5f                stx $5f
f38d   a8                   tay
f38e   60                   rts
f38f   20 86 f3             jsr lf386
f392   f0 08                beq lf39c
f394   a0 00                ldy #$00
f396   b1 71                lda ($71),y
f398   a8                   tay
f399   4c 83 f3             jmp lf383
f39c   4c 7c ee   lf39c     jmp lee7c
f39f   20 bc 00   lf39f     jsr $00bc
f3a2   20 a1 ea   lf3a2     jsr leaa1
f3a5   20 f5 ed   lf3a5     jsr ledf5
f3a8   a6 ae                ldx $ae
f3aa   d0 f0                bne lf39c
f3ac   a6 af                ldx $af
f3ae   4c c2 00             jmp $00c2
f3b1   20 86 f3             jsr lf386
f3b4   d0 03                bne lf3b9
f3b6   4c e5 f4             jmp lf4e5
f3b9   a6 c3      lf3b9     ldx $c3
f3bb   a4 c4                ldy $c4
f3bd   86 ba                stx $ba
f3bf   84 bb                sty $bb
f3c1   a6 71                ldx $71
f3c3   86 c3                stx $c3
f3c5   18                   clc
f3c6   65 71                adc $71
f3c8   85 73                sta $73
f3ca   a6 72                ldx $72
f3cc   86 c4                stx $c4
f3ce   90 01                bcc lf3d1
f3d0   e8                   inx
f3d1   86 74      lf3d1     stx $74
f3d3   a0 00                ldy #$00
f3d5   b1 73                lda ($73),y
f3d7   48                   pha
f3d8   a9 00                lda #$00
f3da   91 73                sta ($73),y
f3dc   20 c2 00             jsr $00c2
f3df   20 7b f8             jsr lf87b
f3e2   68                   pla
f3e3   a0 00                ldy #$00
f3e5   91 73                sta ($73),y
f3e7   a6 ba      lf3e7     ldx $ba
f3e9   a4 bb                ldy $bb
f3eb   86 c3                stx $c3
f3ed   84 c4                sty $c4
f3ef   60                   rts
f3f0   20 a1 ea   lf3f0     jsr leaa1
f3f3   20 fc f3             jsr lf3fc
f3f6   20 f5 eb   lf3f6     jsr lebf5
f3f9   4c a2 f3             jmp lf3a2
f3fc   a5 b0      lf3fc     lda $b0
f3fe   30 9c                bmi lf39c
f400   a5 ac                lda $ac
f402   c9 91                cmp #$91
f404   b0 96                bcs lf39c
f406   20 25 f8             jsr lf825
f409   a5 ae                lda $ae
f40b   a4 af                ldy $af
f40d   84 11                sty $11
f40f   85 12                sta $12
f411   60                   rts
f412   20 fc f3             jsr lf3fc
f415   a0 00                ldy #$00
f417   b1 11                lda ($11),y
f419   a8                   tay
f41a   4c c4 ef             jmp lefc4
f41d   20 f0 f3             jsr lf3f0
f420   8a                   txa
f421   a0 00                ldy #$00
f423   91 11                sta ($11),y
f425   60                   rts
f426   20 f0 f3             jsr lf3f0
f429   86 97                stx $97
f42b   a2 00                ldx #$00
f42d   20 c2 00             jsr $00c2
f430   f0 03                beq lf435
f432   20 f6 f3             jsr lf3f6
f435   86 98      lf435     stx $98
f437   a0 00                ldy #$00
f439   b1 11      lf439     lda ($11),y
f43b   45 98                eor $98
f43d   25 97                and $97
f43f   f0 f8                beq lf439
f441   60         lf441     rts
f442   a9 8a      lf442     lda #$8a
f444   a0 fa                ldy #$fa
f446   4c 60 f4             jmp lf460
f449   20 41 f6   lf449     jsr lf641
f44c   a5 b0      lf44c     lda $b0
f44e   49 ff                eor #$ff
f450   85 b0                sta $b0
f452   45 b7                eor $b7
f454   85 b8                sta $b8
f456   a5 ac                lda $ac
f458   4c 63 f4             jmp lf463
f45b   20 6f f5   lf45b     jsr lf56f
f45e   90 3c                bcc lf49c
f460   20 41 f6   lf460     jsr lf641
f463   d0 03      lf463     bne lf468
f465   4c 8f f7             jmp lf78f
f468   a6 b9      lf468     ldx $b9
f46a   86 a3                stx $a3
f46c   a2 b3                ldx #$b3
f46e   a5 b3                lda $b3
f470   a8         lf470     tay
f471   f0 ce                beq lf441
f473   38                   sec
f474   e5 ac                sbc $ac
f476   f0 24                beq lf49c
f478   90 12                bcc lf48c
f47a   84 ac                sty $ac
f47c   a4 b7                ldy $b7
f47e   84 b0                sty $b0
f480   49 ff                eor #$ff
f482   69 00                adc #$00
f484   a0 00                ldy #$00
f486   84 a3                sty $a3
f488   a2 ac                ldx #$ac
f48a   d0 04                bne lf490
f48c   a0 00      lf48c     ldy #$00
f48e   84 b9                sty $b9
f490   c9 f9      lf490     cmp #$f9
f492   30 c7                bmi lf45b
f494   a8                   tay
f495   a5 b9                lda $b9
f497   56 01                lsr $01,x
f499   20 86 f5             jsr lf586
f49c   24 b8      lf49c     bit $b8
f49e   10 4c                bpl lf4ec
f4a0   a0 ac                ldy #$ac
f4a2   e0 b3                cpx #$b3
f4a4   f0 02                beq lf4a8
f4a6   a0 b3                ldy #$b3
f4a8   38         lf4a8     sec
f4a9   49 ff                eor #$ff
f4ab   65 a3                adc $a3
f4ad   85 b9                sta $b9
f4af   b9 03 00             lda $0003,y
f4b2   f5 03                sbc $03,x
f4b4   85 af                sta $af
f4b6   b9 02 00             lda $0002,y
f4b9   f5 02                sbc $02,x
f4bb   85 ae                sta $ae
f4bd   b9 01 00             lda $0001,y
f4c0   f5 01                sbc $01,x
f4c2   85 ad                sta $ad
f4c4   b0 03      lf4c4     bcs lf4c9
f4c6   20 2b f5             jsr lf52b
f4c9   a0 00      lf4c9     ldy #$00
f4cb   98                   tya
f4cc   18                   clc
f4cd   a6 ad      lf4cd     ldx $ad
f4cf   d0 3e                bne lf50f
f4d1   a6 ae                ldx $ae
f4d3   86 ad                stx $ad
f4d5   a6 af                ldx $af
f4d7   86 ae                stx $ae
f4d9   a6 b9                ldx $b9
f4db   86 af                stx $af
f4dd   84 b9                sty $b9
f4df   69 08                adc #$08
f4e1   c9 18                cmp #$18
f4e3   d0 e8                bne lf4cd
f4e5   a9 00      lf4e5     lda #$00
f4e7   85 ac      lf4e7     sta $ac
f4e9   85 b0      lf4e9     sta $b0
f4eb   60                   rts
f4ec   65 a3      lf4ec     adc $a3
f4ee   85 b9                sta $b9
f4f0   a5 af                lda $af
f4f2   65 b6                adc $b6
f4f4   85 af                sta $af
f4f6   a5 ae                lda $ae
f4f8   65 b5                adc $b5
f4fa   85 ae                sta $ae
f4fc   a5 ad                lda $ad
f4fe   65 b4                adc $b4
f500   85 ad                sta $ad
f502   4c 1c f5             jmp lf51c
f505   69 01      lf505     adc #$01
f507   06 b9                asl $b9
f509   26 af                rol $af
f50b   26 ae                rol $ae
f50d   26 ad                rol $ad
f50f   10 f4      lf50f     bpl lf505
f511   38                   sec
f512   e5 ac                sbc $ac
f514   b0 cf                bcs lf4e5
f516   49 ff                eor #$ff
f518   69 01                adc #$01
f51a   85 ac                sta $ac
f51c   90 0c      lf51c     bcc lf52a
f51e   e6 ac      lf51e     inc $ac
f520   f0 36                beq lf558
f522   66 ad                ror $ad
f524   66 ae                ror $ae
f526   66 af                ror $af
f528   66 b9                ror $b9
f52a   60         lf52a     rts
f52b   a5 b0      lf52b     lda $b0
f52d   49 ff                eor #$ff
f52f   85 b0                sta $b0
f531   a5 ad      lf531     lda $ad
f533   49 ff                eor #$ff
f535   85 ad                sta $ad
f537   a5 ae                lda $ae
f539   49 ff                eor #$ff
f53b   85 ae                sta $ae
f53d   a5 af                lda $af
f53f   49 ff                eor #$ff
f541   85 af                sta $af
f543   a5 b9                lda $b9
f545   49 ff                eor #$ff
f547   85 b9                sta $b9
f549   e6 b9                inc $b9
f54b   d0 0a                bne lf557
f54d   e6 af      lf54d     inc $af
f54f   d0 06                bne lf557
f551   e6 ae                inc $ae
f553   d0 02                bne lf557
f555   e6 ad                inc $ad
f557   60         lf557     rts
f558   a2 0a      lf558     ldx #$0a
f55a   4c 4e e2             jmp le24e
f55d   a2 74      lf55d     ldx #$74
f55f   b4 03      lf55f     ldy $03,x
f561   84 b9                sty $b9
f563   b4 02                ldy $02,x
f565   94 03                sty $03,x
f567   b4 01                ldy $01,x
f569   94 02                sty $02,x
f56b   a4 b2                ldy $b2
f56d   94 01                sty $01,x
f56f   69 08      lf56f     adc #$08
f571   30 ec                bmi lf55f
f573   f0 ea                beq lf55f
f575   e9 08                sbc #$08
f577   a8                   tay
f578   a5 b9                lda $b9
f57a   b0 12                bcs lf58e
f57c   16 01      lf57c     asl $01,x
f57e   90 02                bcc lf582
f580   f6 01                inc $01,x
f582   76 01      lf582     ror $01,x
f584   76 01                ror $01,x
f586   76 02      lf586     ror $02,x
f588   76 03                ror $03,x
f58a   6a                   ror a
f58b   c8                   iny
f58c   d0 ee                bne lf57c
f58e   18         lf58e     clc
f58f   60                   rts
f590   81 00                sta ($00,x)
f592   00                   brk
f593   00                   brk
f594   02                   ???                ;%00000010
f595   80                   ???                ;%10000000
f596   19 56 62             ora $6256,y
f599   80                   ???                ;%10000000
f59a   76 22                ror $22,x
f59c   f3                   ???                ;%11110011
f59d   82                   ???                ;%10000010
f59e   38                   sec
f59f   aa                   tax
f5a0   40                   rti
f5a1   80                   ???                ;%10000000
f5a2   35 04                and $04,x
f5a4   f3                   ???                ;%11110011
f5a5   81 35                sta ($35,x)
f5a7   04                   ???                ;%00000100
f5a8   f3                   ???                ;%11110011
f5a9   80                   ???                ;%10000000
f5aa   80                   ???                ;%10000000
f5ab   00                   brk
f5ac   00                   brk
f5ad   80                   ???                ;%10000000
f5ae   31 72                and ($72),y
f5b0   18                   clc
f5b1   20 be f7   lf5b1     jsr lf7be
f5b4   f0 02                beq lf5b8
f5b6   10 03                bpl lf5bb
f5b8   4c 7c ee   lf5b8     jmp lee7c
f5bb   a5 ac      lf5bb     lda $ac
f5bd   e9 7f                sbc #$7f
f5bf   48                   pha
f5c0   a9 80                lda #$80
f5c2   85 ac                sta $ac
f5c4   a9 a1                lda #$a1
f5c6   a0 f5                ldy #$f5
f5c8   20 60 f4             jsr lf460
f5cb   a9 a5                lda #$a5
f5cd   a0 f5                ldy #$f5
f5cf   20 be f6             jsr lf6be
f5d2   a9 90                lda #$90
f5d4   a0 f5                ldy #$f5
f5d6   20 49 f4             jsr lf449
f5d9   a9 94                lda #$94
f5db   a0 f5                ldy #$f5
f5dd   20 62 fb             jsr lfb62
f5e0   a9 a9                lda #$a9
f5e2   a0 f5                ldy #$f5
f5e4   20 60 f4             jsr lf460
f5e7   68                   pla
f5e8   20 06 f9             jsr lf906
f5eb   a9 ad                lda #$ad
f5ed   a0 f5                ldy #$f5
f5ef   20 41 f6   lf5ef     jsr lf641
f5f2   f0 4c                beq lf640
f5f4   20 67 f6             jsr lf667
f5f7   a9 00                lda #$00
f5f9   85 75                sta $75
f5fb   85 76                sta $76
f5fd   85 77                sta $77
f5ff   a5 b9                lda $b9
f601   20 16 f6             jsr lf616
f604   a5 af                lda $af
f606   20 16 f6             jsr lf616
f609   a5 ae                lda $ae
f60b   20 16 f6             jsr lf616
f60e   a5 ad                lda $ad
f610   20 1b f6             jsr lf61b
f613   4c 30 f7             jmp lf730
f616   d0 03      lf616     bne lf61b
f618   4c 5d f5             jmp lf55d
f61b   4a         lf61b     lsr a
f61c   09 80                ora #$80
f61e   a8         lf61e     tay
f61f   90 13                bcc lf634
f621   18                   clc
f622   a5 77                lda $77
f624   65 b6                adc $b6
f626   85 77                sta $77
f628   a5 76                lda $76
f62a   65 b5                adc $b5
f62c   85 76                sta $76
f62e   a5 75                lda $75
f630   65 b4                adc $b4
f632   85 75                sta $75
f634   66 75      lf634     ror $75
f636   66 76                ror $76
f638   66 77                ror $77
f63a   66 b9                ror $b9
f63c   98                   tya
f63d   4a                   lsr a
f63e   d0 de                bne lf61e
f640   60         lf640     rts
f641   85 71      lf641     sta $71
f643   84 72                sty $72
f645   a0 03                ldy #$03
f647   b1 71                lda ($71),y
f649   85 b6                sta $b6
f64b   88                   dey
f64c   b1 71                lda ($71),y
f64e   85 b5                sta $b5
f650   88                   dey
f651   b1 71                lda ($71),y
f653   85 b7                sta $b7
f655   45 b0                eor $b0
f657   85 b8                sta $b8
f659   a5 b7                lda $b7
f65b   09 80                ora #$80
f65d   85 b4                sta $b4
f65f   88                   dey
f660   b1 71                lda ($71),y
f662   85 b3                sta $b3
f664   a5 ac                lda $ac
f666   60                   rts
f667   a5 b3      lf667     lda $b3
f669   f0 1f      lf669     beq lf68a
f66b   18                   clc
f66c   65 ac                adc $ac
f66e   90 04                bcc lf674
f670   30 1d                bmi lf68f
f672   18                   clc
f673   2c 10 14             bit $1410
f676   69 80                adc #$80
f678   85 ac                sta $ac
f67a   d0 03                bne lf67f
f67c   4c e9 f4             jmp lf4e9
f67f   a5 b8      lf67f     lda $b8
f681   85 b0                sta $b0
f683   60                   rts
f684   a5 b0      lf684     lda $b0
f686   49 ff                eor #$ff
f688   30 05                bmi lf68f
f68a   68         lf68a     pla
f68b   68                   pla
f68c   4c e5 f4             jmp lf4e5
f68f   4c 58 f5   lf68f     jmp lf558
f692   20 9f f7   lf692     jsr lf79f
f695   aa                   tax
f696   f0 10                beq lf6a8
f698   18                   clc
f699   69 02                adc #$02
f69b   b0 f2                bcs lf68f
f69d   a2 00                ldx #$00
f69f   86 b8                stx $b8
f6a1   20 70 f4             jsr lf470
f6a4   e6 ac                inc $ac
f6a6   f0 e7                beq lf68f
f6a8   60         lf6a8     rts
f6a9   84 20                sty $20
f6ab   00                   brk
f6ac   00                   brk
f6ad   20 9f f7   lf6ad     jsr lf79f
f6b0   a9 a9                lda #$a9
f6b2   a0 f6                ldy #$f6
f6b4   a2 00                ldx #$00
f6b6   86 b8      lf6b6     stx $b8
f6b8   20 3f f7             jsr lf73f
f6bb   4c c1 f6             jmp lf6c1
f6be   20 41 f6   lf6be     jsr lf641
f6c1   f0 68      lf6c1     beq lf72b
f6c3   20 ae f7             jsr lf7ae
f6c6   a9 00                lda #$00
f6c8   38                   sec
f6c9   e5 ac                sbc $ac
f6cb   85 ac                sta $ac
f6cd   20 67 f6             jsr lf667
f6d0   e6 ac                inc $ac
f6d2   f0 bb                beq lf68f
f6d4   a2 fd                ldx #$fd
f6d6   a9 01                lda #$01
f6d8   a4 b4      lf6d8     ldy $b4
f6da   c4 ad                cpy $ad
f6dc   d0 0a                bne lf6e8
f6de   a4 b5                ldy $b5
f6e0   c4 ae                cpy $ae
f6e2   d0 04                bne lf6e8
f6e4   a4 b6                ldy $b6
f6e6   c4 af                cpy $af
f6e8   08         lf6e8     php
f6e9   2a                   rol a
f6ea   90 09                bcc lf6f5
f6ec   e8                   inx
f6ed   95 77                sta $77,x
f6ef   f0 2a                beq lf71b
f6f1   10 2c                bpl lf71f
f6f3   a9 01                lda #$01
f6f5   28         lf6f5     plp
f6f6   b0 0c                bcs lf704
f6f8   06 b6      lf6f8     asl $b6
f6fa   26 b5                rol $b5
f6fc   26 b4                rol $b4
f6fe   b0 e8                bcs lf6e8
f700   30 d6                bmi lf6d8
f702   10 e4                bpl lf6e8
f704   a8         lf704     tay
f705   a5 b6                lda $b6
f707   e5 af                sbc $af
f709   85 b6                sta $b6
f70b   a5 b5                lda $b5
f70d   e5 ae                sbc $ae
f70f   85 b5                sta $b5
f711   a5 b4                lda $b4
f713   e5 ad                sbc $ad
f715   85 b4                sta $b4
f717   98                   tya
f718   4c f8 f6             jmp lf6f8
f71b   a9 40      lf71b     lda #$40
f71d   d0 d6                bne lf6f5
f71f   0a         lf71f     asl a
f720   0a                   asl a
f721   0a                   asl a
f722   0a                   asl a
f723   0a                   asl a
f724   0a                   asl a
f725   85 b9                sta $b9
f727   28                   plp
f728   4c 30 f7             jmp lf730
f72b   a2 14      lf72b     ldx #$14
f72d   4c 4e e2             jmp le24e
f730   a5 75      lf730     lda $75
f732   85 ad                sta $ad
f734   a5 76                lda $76
f736   85 ae                sta $ae
f738   a5 77                lda $77
f73a   85 af                sta $af
f73c   4c c9 f4             jmp lf4c9
f73f   85 71      lf73f     sta $71
f741   84 72                sty $72
f743   a0 03                ldy #$03
f745   b1 71                lda ($71),y
f747   85 af                sta $af
f749   88                   dey
f74a   b1 71                lda ($71),y
f74c   85 ae                sta $ae
f74e   88                   dey
f74f   b1 71                lda ($71),y
f751   85 b0                sta $b0
f753   09 80                ora #$80
f755   85 ad                sta $ad
f757   88                   dey
f758   b1 71                lda ($71),y
f75a   85 ac                sta $ac
f75c   84 b9                sty $b9
f75e   60                   rts
f75f   a2 a8      lf75f     ldx #$a8
f761   2c a2 a4             bit $a4a2
f764   a0 00                ldy #$00
f766   f0 04                beq lf76c
f768   a6 97      lf768     ldx $97
f76a   a4 98                ldy $98
f76c   20 ae f7   lf76c     jsr lf7ae
f76f   86 71                stx $71
f771   84 72                sty $72
f773   a0 03                ldy #$03
f775   a5 af                lda $af
f777   91 71                sta ($71),y
f779   88                   dey
f77a   a5 ae                lda $ae
f77c   91 71                sta ($71),y
f77e   88                   dey
f77f   a5 b0                lda $b0
f781   09 7f                ora #$7f
f783   25 ad                and $ad
f785   91 71                sta ($71),y
f787   88                   dey
f788   a5 ac                lda $ac
f78a   91 71                sta ($71),y
f78c   84 b9                sty $b9
f78e   60                   rts
f78f   a5 b7      lf78f     lda $b7
f791   85 b0      lf791     sta $b0
f793   a2 04                ldx #$04
f795   b5 b2      lf795     lda $b2,x
f797   95 ab                sta $ab,x
f799   ca                   dex
f79a   d0 f9                bne lf795
f79c   86 b9                stx $b9
f79e   60                   rts
f79f   20 ae f7   lf79f     jsr lf7ae
f7a2   a2 05      lf7a2     ldx #$05
f7a4   b5 ab      lf7a4     lda $ab,x
f7a6   95 b2                sta $b2,x
f7a8   ca                   dex
f7a9   d0 f9                bne lf7a4
f7ab   86 b9                stx $b9
f7ad   60         lf7ad     rts
f7ae   a5 ac      lf7ae     lda $ac
f7b0   f0 fb                beq lf7ad
f7b2   06 b9                asl $b9
f7b4   90 f7                bcc lf7ad
f7b6   20 4d f5   lf7b6     jsr lf54d
f7b9   d0 f2                bne lf7ad
f7bb   4c 1e f5             jmp lf51e
f7be   a5 ac      lf7be     lda $ac
f7c0   f0 09                beq lf7cb
f7c2   a5 b0      lf7c2     lda $b0
f7c4   2a         lf7c4     rol a
f7c5   a9 ff                lda #$ff
f7c7   b0 02                bcs lf7cb
f7c9   a9 01                lda #$01
f7cb   60         lf7cb     rts
f7cc   20 be f7             jsr lf7be
f7cf   85 ad      lf7cf     sta $ad
f7d1   a9 00                lda #$00
f7d3   85 ae                sta $ae
f7d5   a2 88                ldx #$88
f7d7   a5 ad      lf7d7     lda $ad
f7d9   49 ff                eor #$ff
f7db   2a                   rol a
f7dc   a9 00      lf7dc     lda #$00
f7de   85 af                sta $af
f7e0   86 ac                stx $ac
f7e2   85 b9                sta $b9
f7e4   85 b0                sta $b0
f7e6   4c c4 f4             jmp lf4c4
f7e9   46 b0                lsr $b0
f7eb   60                   rts
f7ec   85 73      lf7ec     sta $73
f7ee   84 74      lf7ee     sty $74
f7f0   a0 00                ldy #$00
f7f2   b1 73                lda ($73),y
f7f4   c8                   iny
f7f5   aa                   tax
f7f6   f0 c6                beq lf7be
f7f8   b1 73                lda ($73),y
f7fa   45 b0                eor $b0
f7fc   30 c4                bmi lf7c2
f7fe   e4 ac                cpx $ac
f800   d0 1a                bne lf81c
f802   b1 73                lda ($73),y
f804   09 80                ora #$80
f806   c5 ad                cmp $ad
f808   d0 12                bne lf81c
f80a   c8                   iny
f80b   b1 73                lda ($73),y
f80d   c5 ae                cmp $ae
f80f   d0 0b                bne lf81c
f811   c8                   iny
f812   a9 7f                lda #$7f
f814   c5 b9                cmp $b9
f816   b1 73                lda ($73),y
f818   e5 af                sbc $af
f81a   f0 28                beq lf844
f81c   a5 b0      lf81c     lda $b0
f81e   90 02                bcc lf822
f820   49 ff                eor #$ff
f822   4c c4 f7   lf822     jmp lf7c4
f825   a5 ac      lf825     lda $ac
f827   f0 4a                beq lf873
f829   38                   sec
f82a   e9 98                sbc #$98
f82c   24 b0                bit $b0
f82e   10 09                bpl lf839
f830   aa                   tax
f831   a9 ff                lda #$ff
f833   85 b2                sta $b2
f835   20 31 f5             jsr lf531
f838   8a                   txa
f839   a2 ac      lf839     ldx #$ac
f83b   c9 f9                cmp #$f9
f83d   10 06                bpl lf845
f83f   20 6f f5             jsr lf56f
f842   84 b2                sty $b2
f844   60         lf844     rts
f845   a8         lf845     tay
f846   a5 b0                lda $b0
f848   29 80                and #$80
f84a   46 ad                lsr $ad
f84c   05 ad                ora $ad
f84e   85 ad                sta $ad
f850   20 86 f5             jsr lf586
f853   84 b2                sty $b2
f855   60                   rts
f856   a5 ac      lf856     lda $ac
f858   c9 98                cmp #$98
f85a   b0 1e                bcs lf87a
f85c   20 25 f8             jsr lf825
f85f   84 b9                sty $b9
f861   a5 b0                lda $b0
f863   84 b0                sty $b0
f865   49 80                eor #$80
f867   2a                   rol a
f868   a9 98                lda #$98
f86a   85 ac                sta $ac
f86c   a5 af                lda $af
f86e   85 5b                sta $5b
f870   4c c4 f4             jmp lf4c4
f873   85 ad      lf873     sta $ad
f875   85 ae                sta $ae
f877   85 af                sta $af
f879   a8                   tay
f87a   60         lf87a     rts
f87b   a0 00      lf87b     ldy #$00
f87d   a2 09                ldx #$09
f87f   94 a8      lf87f     sty $a8,x
f881   ca                   dex
f882   10 fb                bpl lf87f
f884   90 0f                bcc lf895
f886   c9 2d                cmp #$2d
f888   d0 04                bne lf88e
f88a   86 b1                stx $b1
f88c   f0 04                beq lf892
f88e   c9 2b      lf88e     cmp #$2b
f890   d0 05                bne lf897
f892   20 bc 00   lf892     jsr $00bc
f895   90 5b      lf895     bcc lf8f2
f897   c9 2e      lf897     cmp #$2e
f899   f0 2e                beq lf8c9
f89b   c9 45                cmp #$45
f89d   d0 30                bne lf8cf
f89f   20 bc 00             jsr $00bc
f8a2   90 17                bcc lf8bb
f8a4   c9 a4                cmp #$a4
f8a6   f0 0e                beq lf8b6
f8a8   c9 2d                cmp #$2d
f8aa   f0 0a                beq lf8b6
f8ac   c9 a3                cmp #$a3
f8ae   f0 08                beq lf8b8
f8b0   c9 2b                cmp #$2b
f8b2   f0 04                beq lf8b8
f8b4   d0 07                bne lf8bd
f8b6   66 ab      lf8b6     ror $ab
f8b8   20 bc 00   lf8b8     jsr $00bc
f8bb   90 5c      lf8bb     bcc lf919
f8bd   24 ab      lf8bd     bit $ab
f8bf   10 0e                bpl lf8cf
f8c1   a9 00                lda #$00
f8c3   38                   sec
f8c4   e5 a9                sbc $a9
f8c6   4c d1 f8             jmp lf8d1
f8c9   66 aa      lf8c9     ror $aa
f8cb   24 aa                bit $aa
f8cd   50 c3                bvc lf892
f8cf   a5 a9      lf8cf     lda $a9
f8d1   38         lf8d1     sec
f8d2   e5 a8                sbc $a8
f8d4   85 a9                sta $a9
f8d6   f0 12                beq lf8ea
f8d8   10 09                bpl lf8e3
f8da   20 ad f6   lf8da     jsr lf6ad
f8dd   e6 a9                inc $a9
f8df   d0 f9                bne lf8da
f8e1   f0 07                beq lf8ea
f8e3   20 92 f6   lf8e3     jsr lf692
f8e6   c6 a9                dec $a9
f8e8   d0 f9                bne lf8e3
f8ea   a5 b1      lf8ea     lda $b1
f8ec   30 01                bmi lf8ef
f8ee   60                   rts
f8ef   4c e3 fa   lf8ef     jmp lfae3
f8f2   48         lf8f2     pha
f8f3   24 aa                bit $aa
f8f5   10 02                bpl lf8f9
f8f7   e6 a8                inc $a8
f8f9   20 92 f6   lf8f9     jsr lf692
f8fc   68                   pla
f8fd   38                   sec
f8fe   e9 30                sbc #$30
f900   20 06 f9             jsr lf906
f903   4c 92 f8             jmp lf892
f906   48         lf906     pha
f907   20 9f f7             jsr lf79f
f90a   68                   pla
f90b   20 cf f7             jsr lf7cf
f90e   a5 b7                lda $b7
f910   45 b0                eor $b0
f912   85 b8                sta $b8
f914   a6 ac                ldx $ac
f916   4c 63 f4             jmp lf463
f919   a5 a9      lf919     lda $a9
f91b   c9 0a                cmp #$0a
f91d   90 09                bcc lf928
f91f   a9 64                lda #$64
f921   24 ab                bit $ab
f923   30 11                bmi lf936
f925   4c 58 f5             jmp lf558
f928   0a         lf928     asl a
f929   0a                   asl a
f92a   18                   clc
f92b   65 a9                adc $a9
f92d   0a                   asl a
f92e   18                   clc
f92f   a0 00                ldy #$00
f931   71 c3                adc ($c3),y
f933   38                   sec
f934   e9 30                sbc #$30
f936   85 a9      lf936     sta $a9
f938   4c b8 f8             jmp lf8b8
f93b   91 43                sta ($43),y
f93d   4f                   ???                ;%01001111 'O'
f93e   f8                   sed
f93f   94 74                sty $74,x
f941   23                   ???                ;%00100011 '#'
f942   f7                   ???                ;%11110111
f943   94 74                sty $74,x
f945   24 00                bit $00
f947   a9 8d      lf947     lda #$8d
f949   a0 e1                ldy #$e1
f94b   20 5f f9             jsr lf95f
f94e   a5 88                lda $88
f950   a6 87                ldx $87
f952   85 ad      lf952     sta $ad
f954   86 ae                stx $ae
f956   a2 90                ldx #$90
f958   38                   sec
f959   20 dc f7             jsr lf7dc
f95c   20 62 f9             jsr lf962
f95f   4c b7 e8   lf95f     jmp le8b7
f962   a0 01      lf962     ldy #$01
f964   a9 20      lf964     lda #$20
f966   24 b0                bit $b0
f968   10 02                bpl lf96c
f96a   a9 2d                lda #$2d
f96c   99 ff 00   lf96c     sta $00ff,y
f96f   85 b0                sta $b0
f971   84 ba                sty $ba
f973   c8                   iny
f974   a9 30                lda #$30
f976   a6 ac                ldx $ac
f978   d0 03                bne lf97d
f97a   4c 7d fa             jmp lfa7d
f97d   a9 00      lf97d     lda #$00
f97f   e0 80                cpx #$80
f981   f0 02                beq lf985
f983   b0 09                bcs lf98e
f985   a9 43      lf985     lda #$43
f987   a0 f9                ldy #$f9
f989   20 ef f5             jsr lf5ef
f98c   a9 fa                lda #$fa
f98e   85 a8      lf98e     sta $a8
f990   a9 3f      lf990     lda #$3f
f992   a0 f9                ldy #$f9
f994   20 ec f7             jsr lf7ec
f997   f0 1e                beq lf9b7
f999   10 12                bpl lf9ad
f99b   a9 3b      lf99b     lda #$3b
f99d   a0 f9                ldy #$f9
f99f   20 ec f7             jsr lf7ec
f9a2   f0 02                beq lf9a6
f9a4   10 0e                bpl lf9b4
f9a6   20 92 f6   lf9a6     jsr lf692
f9a9   c6 a8                dec $a8
f9ab   d0 ee                bne lf99b
f9ad   20 ad f6   lf9ad     jsr lf6ad
f9b0   e6 a8                inc $a8
f9b2   d0 dc                bne lf990
f9b4   20 42 f4   lf9b4     jsr lf442
f9b7   20 25 f8   lf9b7     jsr lf825
f9ba   a2 01                ldx #$01
f9bc   a5 a8                lda $a8
f9be   18                   clc
f9bf   69 07                adc #$07
f9c1   30 09                bmi lf9cc
f9c3   c9 08                cmp #$08
f9c5   b0 06                bcs lf9cd
f9c7   69 ff                adc #$ff
f9c9   aa                   tax
f9ca   a9 02                lda #$02
f9cc   38         lf9cc     sec
f9cd   e9 02      lf9cd     sbc #$02
f9cf   85 a9                sta $a9
f9d1   86 a8                stx $a8
f9d3   8a                   txa
f9d4   f0 02                beq lf9d8
f9d6   10 13                bpl lf9eb
f9d8   a4 ba      lf9d8     ldy $ba
f9da   a9 2e                lda #$2e
f9dc   c8                   iny
f9dd   99 ff 00             sta $00ff,y
f9e0   8a                   txa
f9e1   f0 06                beq lf9e9
f9e3   a9 30                lda #$30
f9e5   c8                   iny
f9e6   99 ff 00             sta $00ff,y
f9e9   84 ba      lf9e9     sty $ba
f9eb   a0 00      lf9eb     ldy #$00
f9ed   a2 80                ldx #$80
f9ef   a5 af      lf9ef     lda $af
f9f1   18                   clc
f9f2   79 90 fa             adc $fa90,y
f9f5   85 af                sta $af
f9f7   a5 ae                lda $ae
f9f9   79 8f fa             adc $fa8f,y
f9fc   85 ae                sta $ae
f9fe   a5 ad                lda $ad
fa00   79 8e fa             adc $fa8e,y
fa03   85 ad                sta $ad
fa05   e8                   inx
fa06   b0 04                bcs lfa0c
fa08   10 e5                bpl lf9ef
fa0a   30 02                bmi lfa0e
fa0c   30 e1      lfa0c     bmi lf9ef
fa0e   8a         lfa0e     txa
fa0f   90 04                bcc lfa15
fa11   49 ff                eor #$ff
fa13   69 0a                adc #$0a
fa15   69 2f      lfa15     adc #$2f
fa17   c8                   iny
fa18   c8                   iny
fa19   c8                   iny
fa1a   84 95                sty $95
fa1c   a4 ba                ldy $ba
fa1e   c8                   iny
fa1f   aa                   tax
fa20   29 7f                and #$7f
fa22   99 ff 00             sta $00ff,y
fa25   c6 a8                dec $a8
fa27   d0 06                bne lfa2f
fa29   a9 2e                lda #$2e
fa2b   c8                   iny
fa2c   99 ff 00             sta $00ff,y
fa2f   84 ba      lfa2f     sty $ba
fa31   a4 95                ldy $95
fa33   8a                   txa
fa34   49 ff                eor #$ff
fa36   29 80                and #$80
fa38   aa                   tax
fa39   c0 12                cpy #$12
fa3b   d0 b2                bne lf9ef
fa3d   a4 ba                ldy $ba
fa3f   b9 ff 00   lfa3f     lda $00ff,y
fa42   88                   dey
fa43   c9 30                cmp #$30
fa45   f0 f8                beq lfa3f
fa47   c9 2e                cmp #$2e
fa49   f0 01                beq lfa4c
fa4b   c8                   iny
fa4c   a9 2b      lfa4c     lda #$2b
fa4e   a6 a9                ldx $a9
fa50   f0 2e                beq lfa80
fa52   10 08                bpl lfa5c
fa54   a9 00                lda #$00
fa56   38                   sec
fa57   e5 a9                sbc $a9
fa59   aa                   tax
fa5a   a9 2d                lda #$2d
fa5c   99 01 01   lfa5c     sta $0101,y
fa5f   a9 45                lda #$45
fa61   99 00 01             sta $0100,y
fa64   8a                   txa
fa65   a2 2f                ldx #$2f
fa67   38                   sec
fa68   e8         lfa68     inx
fa69   e9 0a                sbc #$0a
fa6b   b0 fb                bcs lfa68
fa6d   69 3a                adc #$3a
fa6f   99 03 01             sta $0103,y
fa72   8a                   txa
fa73   99 02 01             sta $0102,y
fa76   a9 00                lda #$00
fa78   99 04 01             sta $0104,y
fa7b   f0 08                beq lfa85
fa7d   99 ff 00   lfa7d     sta $00ff,y
fa80   a9 00      lfa80     lda #$00
fa82   99 00 01             sta $0100,y
fa85   a9 00      lfa85     lda #$00
fa87   a0 01                ldy #$01
fa89   60                   rts
fa8a   80                   ???                ;%10000000
fa8b   00                   brk
fa8c   00                   brk
fa8d   00                   brk
fa8e   fe 79 60             inc $6079,x
fa91   00                   brk
fa92   27                   ???                ;%00100111 '''
fa93   10 ff                bpl lfa94
fa95   fc                   ???                ;%11111100
fa96   18                   clc
fa97   00                   brk
fa98   00                   brk
fa99   64                   ???                ;%01100100 'd'
fa9a   ff                   ???                ;%11111111
fa9b   ff                   ???                ;%11111111
fa9c   f6 00                inc $00,x
fa9e   00                   brk
fa9f   01 20                ora ($20,x)
faa1   9f                   ???                ;%10011111
faa2   f7                   ???                ;%11110111
faa3   a9 8a                lda #$8a
faa5   a0 fa                ldy #$fa
faa7   20 3f f7             jsr lf73f
faaa   f0 63                beq lfb0f
faac   a5 b3                lda $b3
faae   d0 03                bne lfab3
fab0   4c e7 f4             jmp lf4e7
fab3   a2 9c      lfab3     ldx #$9c
fab5   a0 00                ldy #$00
fab7   20 6c f7             jsr lf76c
faba   a5 b7                lda $b7
fabc   10 0f                bpl lfacd
fabe   20 56 f8             jsr lf856
fac1   a9 9c                lda #$9c
fac3   a0 00                ldy #$00
fac5   20 ec f7             jsr lf7ec
fac8   d0 03                bne lfacd
faca   98                   tya
facb   a4 5b                ldy $5b
facd   20 91 f7   lfacd     jsr lf791
fad0   98                   tya
fad1   48                   pha
fad2   20 b1 f5             jsr lf5b1
fad5   a9 9c                lda #$9c
fad7   a0 00                ldy #$00
fad9   20 ef f5             jsr lf5ef
fadc   20 0f fb             jsr lfb0f
fadf   68                   pla
fae0   4a                   lsr a
fae1   90 0a                bcc lfaed
fae3   a5 ac      lfae3     lda $ac
fae5   f0 06                beq lfaed
fae7   a5 b0                lda $b0
fae9   49 ff                eor #$ff
faeb   85 b0                sta $b0
faed   60         lfaed     rts
faee   81 38                sta ($38,x)
faf0   aa                   tax
faf1   3b                   ???                ;%00111011 ';'
faf2   06 74                asl $74
faf4   63                   ???                ;%01100011 'c'
faf5   90 8c                bcc lfa83
faf7   77                   ???                ;%01110111 'w'
faf8   23                   ???                ;%00100011 '#'
faf9   0c                   ???                ;%00001100
fafa   ab                   ???                ;%10101011
fafb   7a                   ???                ;%01111010 'z'
fafc   1e 94 00             asl $0094,x
faff   7c                   ???                ;%01111100 '|'
fb00   63                   ???                ;%01100011 'c'
fb01   42                   ???                ;%01000010 'B'
fb02   80                   ???                ;%10000000
fb03   7e 75 fe             ror $fe75,x
fb06   d0 80                bne lfa88
fb08   31 72                and ($72),y
fb0a   15 81                ora $81,x
fb0c   00                   brk
fb0d   00                   brk
fb0e   00                   brk
fb0f   a9 ee      lfb0f     lda #$ee
fb11   a0 fa                ldy #$fa
fb13   20 ef f5             jsr lf5ef
fb16   a5 b9                lda $b9
fb18   69 50                adc #$50
fb1a   90 03                bcc lfb1f
fb1c   20 b6 f7             jsr lf7b6
fb1f   85 a3      lfb1f     sta $a3
fb21   20 a2 f7             jsr lf7a2
fb24   a5 ac                lda $ac
fb26   c9 88                cmp #$88
fb28   90 03                bcc lfb2d
fb2a   20 84 f6   lfb2a     jsr lf684
fb2d   20 56 f8   lfb2d     jsr lf856
fb30   a5 5b                lda $5b
fb32   18                   clc
fb33   69 81                adc #$81
fb35   f0 f3                beq lfb2a
fb37   38                   sec
fb38   e9 01                sbc #$01
fb3a   48                   pha
fb3b   a2 04                ldx #$04
fb3d   b5 b3      lfb3d     lda $b3,x
fb3f   b4 ac                ldy $ac,x
fb41   95 ac                sta $ac,x
fb43   94 b3                sty $b3,x
fb45   ca                   dex
fb46   10 f5                bpl lfb3d
fb48   a5 a3                lda $a3
fb4a   85 b9                sta $b9
fb4c   20 4c f4             jsr lf44c
fb4f   20 e3 fa             jsr lfae3
fb52   a9 f2                lda #$f2
fb54   a0 fa                ldy #$fa
fb56   20 78 fb             jsr lfb78
fb59   a9 00                lda #$00
fb5b   85 b8                sta $b8
fb5d   68                   pla
fb5e   20 69 f6             jsr lf669
fb61   60                   rts
fb62   85 ba      lfb62     sta $ba
fb64   84 bb                sty $bb
fb66   20 62 f7             jsr lf762
fb69   a9 a4                lda #$a4
fb6b   20 ef f5             jsr lf5ef
fb6e   20 7c fb             jsr lfb7c
fb71   a9 a4                lda #$a4
fb73   a0 00                ldy #$00
fb75   4c ef f5             jmp lf5ef
fb78   85 ba      lfb78     sta $ba
fb7a   84 bb                sty $bb
fb7c   20 5f f7   lfb7c     jsr lf75f
fb7f   b1 ba                lda ($ba),y
fb81   85 b1                sta $b1
fb83   a4 ba                ldy $ba
fb85   c8                   iny
fb86   98                   tya
fb87   d0 02                bne lfb8b
fb89   e6 bb                inc $bb
fb8b   85 ba      lfb8b     sta $ba
fb8d   a4 bb                ldy $bb
fb8f   20 ef f5   lfb8f     jsr lf5ef
fb92   a5 ba                lda $ba
fb94   a4 bb                ldy $bb
fb96   18                   clc
fb97   69 04                adc #$04
fb99   90 01                bcc lfb9c
fb9b   c8                   iny
fb9c   85 ba      lfb9c     sta $ba
fb9e   84 bb                sty $bb
fba0   20 60 f4             jsr lf460
fba3   a9 a8                lda #$a8
fba5   a0 00                ldy #$00
fba7   c6 b1                dec $b1
fba9   d0 e4                bne lfb8f
fbab   60         lfbab     rts
fbac   98                   tya
fbad   35 44                and $44,x
fbaf   7a                   ???                ;%01111010 'z'
fbb0   68                   pla
fbb1   28                   plp
fbb2   b1 46                lda ($46),y
fbb4   20 be f7             jsr lf7be
fbb7   aa                   tax
fbb8   30 18                bmi lfbd2
fbba   a9 d4                lda #$d4
fbbc   a0 00                ldy #$00
fbbe   20 3f f7             jsr lf73f
fbc1   8a                   txa
fbc2   f0 e7                beq lfbab
fbc4   a9 ac                lda #$ac
fbc6   a0 fb                ldy #$fb
fbc8   20 ef f5             jsr lf5ef
fbcb   a9 b0                lda #$b0
fbcd   a0 fb                ldy #$fb
fbcf   20 60 f4             jsr lf460
fbd2   a6 af      lfbd2     ldx $af
fbd4   a5 ad                lda $ad
fbd6   85 af                sta $af
fbd8   86 ad                stx $ad
fbda   a9 00                lda #$00
fbdc   85 b0                sta $b0
fbde   a5 ac                lda $ac
fbe0   85 b9                sta $b9
fbe2   a9 80                lda #$80
fbe4   85 ac                sta $ac
fbe6   20 c9 f4             jsr lf4c9
fbe9   a2 d4                ldx #$d4
fbeb   a0 00                ldy #$00
fbed   4c 6c f7   lfbed     jmp lf76c
fbf0   a9 6c                lda #$6c
fbf2   a0 fc                ldy #$fc
fbf4   20 60 f4             jsr lf460
fbf7   20 9f f7   lfbf7     jsr lf79f
fbfa   a9 70                lda #$70
fbfc   a0 fc                ldy #$fc
fbfe   a6 b7                ldx $b7
fc00   20 b6 f6             jsr lf6b6
fc03   20 9f f7             jsr lf79f
fc06   20 56 f8             jsr lf856
fc09   a9 00                lda #$00
fc0b   85 b8                sta $b8
fc0d   20 4c f4             jsr lf44c
fc10   a9 74                lda #$74
fc12   a0 fc                ldy #$fc
fc14   20 49 f4             jsr lf449
fc17   a5 b0                lda $b0
fc19   48                   pha
fc1a   10 0d                bpl lfc29
fc1c   20 42 f4             jsr lf442
fc1f   a5 b0                lda $b0
fc21   30 09                bmi lfc2c
fc23   a5 63                lda $63
fc25   49 ff                eor #$ff
fc27   85 63                sta $63
fc29   20 e3 fa   lfc29     jsr lfae3
fc2c   a9 74      lfc2c     lda #$74
fc2e   a0 fc                ldy #$fc
fc30   20 60 f4             jsr lf460
fc33   68                   pla
fc34   10 03                bpl lfc39
fc36   20 e3 fa             jsr lfae3
fc39   a9 78      lfc39     lda #$78
fc3b   a0 fc                ldy #$fc
fc3d   4c 62 fb             jmp lfb62
fc40   20 62 f7             jsr lf762
fc43   a9 00                lda #$00
fc45   85 63                sta $63
fc47   20 f7 fb             jsr lfbf7
fc4a   a2 9c                ldx #$9c
fc4c   a0 00                ldy #$00
fc4e   20 ed fb             jsr lfbed
fc51   a9 a4                lda #$a4
fc53   a0 00                ldy #$00
fc55   20 3f f7             jsr lf73f
fc58   a9 00                lda #$00
fc5a   85 b0                sta $b0
fc5c   a5 63                lda $63
fc5e   20 68 fc             jsr lfc68
fc61   a9 9c                lda #$9c
fc63   a0 00                ldy #$00
fc65   4c be f6             jmp lf6be
fc68   48         lfc68     pha
fc69   4c 29 fc             jmp lfc29
fc6c   81 49                sta ($49,x)
fc6e   0f                   ???                ;%00001111
fc6f   db                   ???                ;%11011011
fc70   83                   ???                ;%10000011
fc71   49 0f                eor #$0f
fc73   db                   ???                ;%11011011
fc74   7f                   ???                ;%01111111
fc75   00                   brk
fc76   00                   brk
fc77   00                   brk
fc78   04                   ???                ;%00000100
fc79   86 1e                stx $1e
fc7b   d7                   ???                ;%11010111
fc7c   fb                   ???                ;%11111011
fc7d   87                   ???                ;%10000111
fc7e   99 26 65             sta $6526,y
fc81   87                   ???                ;%10000111
fc82   23                   ???                ;%00100011 '#'
fc83   34                   ???                ;%00110100 '4'
fc84   58                   cli
fc85   86 a5                stx $a5
fc87   5d e1 83             eor $83e1,x
fc8a   49 0f                eor #$0f
fc8c   db                   ???                ;%11011011
fc8d   a5 b0                lda $b0
fc8f   48                   pha
fc90   10 03                bpl lfc95
fc92   20 e3 fa             jsr lfae3
fc95   a5 ac      lfc95     lda $ac
fc97   48                   pha
fc98   c9 81                cmp #$81
fc9a   90 07                bcc lfca3
fc9c   a9 90                lda #$90
fc9e   a0 f5                ldy #$f5
fca0   20 be f6             jsr lf6be
fca3   a9 bd      lfca3     lda #$bd
fca5   a0 fc                ldy #$fc
fca7   20 62 fb             jsr lfb62
fcaa   68                   pla
fcab   c9 81                cmp #$81
fcad   90 07                bcc lfcb6
fcaf   a9 6c                lda #$6c
fcb1   a0 fc                ldy #$fc
fcb3   20 49 f4             jsr lf449
fcb6   68         lfcb6     pla
fcb7   10 03                bpl lfcbc
fcb9   4c e3 fa             jmp lfae3
fcbc   60         lfcbc     rts
fcbd   08                   php
fcbe   78                   sei
fcbf   3a                   ???                ;%00111010 ':'
fcc0   c5 37                cmp $37
fcc2   7b                   ???                ;%01111011 '{'
fcc3   83                   ???                ;%10000011
fcc4   a2 5c                ldx #$5c
fcc6   7c                   ???                ;%01111100 '|'
fcc7   2e dd 4d             rol $4ddd
fcca   7d 99 b0             adc $b099,x
fccd   1e 7d 59             asl $597d,x
fcd0   ed 24 7e             sbc $7e24
fcd3   91 72                sta ($72),y
fcd5   00                   brk
fcd6   7e 4c b9             ror $b94c,x
fcd9   73                   ???                ;%01110011 's'
fcda   7f                   ???                ;%01111111
fcdb   aa                   tax
fcdc   aa                   tax
fcdd   53                   ???                ;%01010011 'S'
fcde   81 00                sta ($00,x)
fce0   00                   brk
fce1   00                   brk
fce2   e6 c3      lfce2     inc $c3
fce4   d0 02                bne lfce8
fce6   e6 c4                inc $c4
fce8   ad 60 ea   lfce8     lda $ea60
fceb   c9 3a                cmp #$3a
fced   b0 0a                bcs lfcf9
fcef   c9 20                cmp #$20
fcf1   f0 ef                beq lfce2
fcf3   38                   sec
fcf4   e9 30                sbc #$30
fcf6   38                   sec
fcf7   e9 d0                sbc #$d0
fcf9   60         lfcf9     rts
fcfa   80                   ???                ;%10000000
fcfb   4f                   ???                ;%01001111 'O'
fcfc   c7                   ???                ;%11000111
fcfd   52                   ???                ;%01010010 'R'
fcfe   a9 42      lfcfe     lda #$42
fd00   a0 fe                ldy #$fe
fd02   20 b7 e8             jsr le8b7
fd05   a2 ff      lfd05     ldx #$ff
fd07   86 88                stx $88
fd09   9a                   txs
fd0a   a9 05                lda #$05
fd0c   a0 fd                ldy #$fd
fd0e   85 01                sta $01
fd10   84 02                sty $02
fd12   85 04                sta $04
fd14   84 05                sty $05
fd16   a9 f9                lda #$f9
fd18   a0 ed                ldy #$ed
fd1a   85 06                sta $06
fd1c   84 07                sty $07
fd1e   a9 b5                lda #$b5
fd20   a0 ef                ldy #$ef
fd22   85 08                sta $08
fd24   84 09                sty $09
fd26   a9 4c                lda #$4c
fd28   85 00                sta $00
fd2a   85 03                sta $03
fd2c   85 a1                sta $a1
fd2e   85 0a                sta $0a
fd30   a9 7c                lda #$7c
fd32   a0 ee                ldy #$ee
fd34   85 0b                sta $0b
fd36   84 0c                sty $0c
fd38   a9 48                lda #$48
fd3a   85 0f                sta $0f
fd3c   a9 38                lda #$38
fd3e   85 10                sta $10
fd40   a2 1c                ldx #$1c
fd42   bd e1 fc   lfd42     lda $fce1,x
fd45   95 bb                sta $bb,x
fd47   ca                   dex
fd48   d0 f8                bne lfd42
fd4a   8a                   txa
fd4b   85 b2                sta $b2
fd4d   85 67                sta $67
fd4f   85 0d                sta $0d
fd51   85 0e                sta $0e
fd53   48                   pha
fd54   85 64                sta $64
fd56   a9 03                lda #$03
fd58   85 a0                sta $a0
fd5a   a9 2c                lda #$2c
fd5c   85 12                sta $12
fd5e   20 60 e8             jsr le860
fd61   a2 68                ldx #$68
fd63   86 65                stx $65
fd65   a9 66                lda #$66
fd67   a0 fe                ldy #$fe
fd69   20 b7 e8             jsr le8b7
fd6c   20 3a e9             jsr le93a
fd6f   86 c3                stx $c3
fd71   84 c4                sty $c4
fd73   20 bc 00             jsr $00bc
fd76   c9 41                cmp #$41
fd78   f0 84                beq lfcfe
fd7a   a8                   tay
fd7b   d0 21                bne lfd9e
fd7d   a9 00                lda #$00
fd7f   a0 02                ldy #$02
fd81   85 11                sta $11
fd83   84 12                sty $12
fd85   a0 00                ldy #$00
fd87   e6 11      lfd87     inc $11
fd89   d0 02                bne lfd8d
fd8b   e6 12                inc $12
fd8d   a9 92      lfd8d     lda #$92
fd8f   91 11                sta ($11),y
fd91   d1 11                cmp ($11),y
fd93   d0 15                bne lfdaa
fd95   0a                   asl a
fd96   91 11                sta ($11),y
fd98   d1 11                cmp ($11),y
fd9a   f0 eb                beq lfd87
fd9c   d0 0c                bne lfdaa
fd9e   20 c2 00   lfd9e     jsr $00c2
fda1   20 73 e7             jsr le773
fda4   a8                   tay
fda5   f0 03                beq lfdaa
fda7   4c 00 ec             jmp lec00
fdaa   a5 11      lfdaa     lda $11
fdac   a4 12                ldy $12
fdae   85 85                sta $85
fdb0   84 86                sty $86
fdb2   85 81                sta $81
fdb4   84 82                sty $82
fdb6   a9 72      lfdb6     lda #$72
fdb8   a0 fe                ldy #$fe
fdba   20 b7 e8             jsr le8b7
fdbd   20 3a e9             jsr le93a
fdc0   86 c3                stx $c3
fdc2   84 c4                sty $c4
fdc4   20 bc 00             jsr $00bc
fdc7   a8                   tay
fdc8   f0 1c                beq lfde6
fdca   20 73 e7             jsr le773
fdcd   a5 12                lda $12
fdcf   d0 e5                bne lfdb6
fdd1   a5 11                lda $11
fdd3   c9 10                cmp #$10
fdd5   90 df                bcc lfdb6
fdd7   85 0f                sta $0f
fdd9   e9 0e      lfdd9     sbc #$0e
fddb   b0 fc                bcs lfdd9
fddd   49 ff                eor #$ff
fddf   e9 0c                sbc #$0c
fde1   18                   clc
fde2   65 0f                adc $0f
fde4   85 10                sta $10
fde6   a2 00      lfde6     ldx #$00
fde8   a0 02                ldy #$02
fdea   86 79                stx $79
fdec   84 7a                sty $7a
fdee   a0 00                ldy #$00
fdf0   98                   tya
fdf1   91 79                sta ($79),y
fdf3   e6 79                inc $79
fdf5   d0 02                bne lfdf9
fdf7   e6 7a                inc $7a
fdf9   a5 79      lfdf9     lda $79
fdfb   a4 7a                ldy $7a
fdfd   20 1f e2             jsr le21f
fe00   20 60 e8             jsr le860
fe03   a5 85                lda $85
fe05   38                   sec
fe06   e5 79                sbc $79
fe08   aa                   tax
fe09   a5 86                lda $86
fe0b   e5 7a                sbc $7a
fe0d   20 52 f9             jsr lf952
fe10   a9 81                lda #$81
fe12   a0 fe                ldy #$fe
fe14   20 b7 e8             jsr le8b7
fe17   a9 b7                lda #$b7
fe19   a0 e8                ldy #$e8
fe1b   85 04                sta $04
fe1d   84 05                sty $05
fe1f   20 63 e4             jsr le463
fe22   a9 74                lda #$74
fe24   a0 e2                ldy #$e2
fe26   85 01                sta $01
fe28   84 02                sty $02
fe2a   6c 01 00             jmp ($0001)
fe2d   57                   ???                ;%01010111 'W'
fe2e   41 4e                eor ($4e,x)
fe30   54                   ???                ;%01010100 'T'
fe31   20 53 49             jsr $4953
fe34   4e 2d 43             lsr $432d
fe37   4f                   ???                ;%01001111 'O'
fe38   53                   ???                ;%01010011 'S'
fe39   2d 54 41             and $4154
fe3c   4e 2d 41             lsr $412d
fe3f   54                   ???                ;%01010100 'T'
fe40   4e 00 0d             lsr $0d00
fe43   0a                   asl a
fe44   0c                   ???                ;%00001100
fe45   57                   ???                ;%01010111 'W'
fe46   52                   ???                ;%01010010 'R'
fe47   49 54                eor #$54
fe49   54                   ???                ;%01010100 'T'
fe4a   45 4e                eor $4e
fe4c   20 42 59             jsr $5942
fe4f   20 52 49             jsr $4952
fe52   43                   ???                ;%01000011 'C'
fe53   48                   pha
fe54   41 52                eor ($52,x)
fe56   44                   ???                ;%01000100 'D'
fe57   20 57 2e             jsr $2e57
fe5a   20 57 45             jsr $4557
fe5d   49 4c                eor #$4c
fe5f   41 4e                eor ($4e,x)
fe61   44                   ???                ;%01000100 'D'
fe62   2e 0d 0a             rol $0a0d
fe65   00                   brk
fe66   4d 45 4d             eor $4d45
fe69   4f                   ???                ;%01001111 'O'
fe6a   52                   ???                ;%01010010 'R'
fe6b   59 20 53             eor $5320,y
fe6e   49 5a                eor #$5a
fe70   45 00                eor $00
fe72   54                   ???                ;%01010100 'T'
fe73   45 52                eor $52
fe75   4d 49 4e             eor $4e49
fe78   41 4c                eor ($4c,x)
fe7a   20 57 49             jsr $4957
fe7d   44                   ???                ;%01000100 'D'
fe7e   54                   ???                ;%01010100 'T'
fe7f   48                   pha
fe80   00                   brk
fe81   20 42 59             jsr $5942
fe84   54                   ???                ;%01010100 'T'
fe85   45 53                eor $53
fe87   20 46 52             jsr $5246
fe8a   45 45                eor $45
fe8c   0d 0a 0d             ora $0d0a
fe8f   0a                   asl a
fe90   4f                   ???                ;%01001111 'O'
fe91   53                   ???                ;%01010011 'S'
fe92   49 20                eor #$20
fe94   36 35                rol $35,x
fe96   30 32                bmi lfeca
fe98   20 42 41             jsr $4142
fe9b   53                   ???                ;%01010011 'S'
fe9c   49 43                eor #$43
fe9e   20 56 45             jsr $4556
fea1   52                   ???                ;%01010010 'R'
fea2   53                   ???                ;%01010011 'S'
fea3   49 4f                eor #$4f
fea5   4e 20 31             lsr $3120
fea8   2e 30 20             rol $2030
feab   52                   ???                ;%01010010 'R'
feac   45 56                eor $56
feae   20 33 2e             jsr $2e33
feb1   32                   ???                ;%00110010 '2'
feb2   0d 0a 43             ora $430a
feb5   4f                   ???                ;%01001111 'O'
feb6   50 59                bvc lff11
feb8   52                   ???                ;%01010010 'R'
feb9   49 47                eor #$47
febb   48                   pha
febc   54                   ???                ;%01010100 'T'
febd   20 31 39             jsr $3931
fec0   37                   ???                ;%00110111 '7'
fec1   37                   ???                ;%00110111 '7'
fec2   20 42 59             jsr $5942
fec5   20 4d 49             jsr $494d
fec8   43                   ???                ;%01000011 'C'
fec9   52                   ???                ;%01010010 'R'
feca   4f         lfeca     ???                ;%01001111 'O'
fecb   53                   ???                ;%01010011 'S'
fecc   4f                   ???                ;%01001111 'O'
fecd   46 54                lsr $54
fecf   20 43 4f             jsr $4f43
fed2   2e 0d 0a             rol $0a0d
fed5   00                   brk
fed6   ff                   ???                ;%11111111
fed7   ff                   ???                ;%11111111
fed8   ff                   ???                ;%11111111
fed9   ff                   ???                ;%11111111
feda   ff                   ???                ;%11111111
fedb   ff                   ???                ;%11111111
fedc   ff                   ???                ;%11111111
fedd   ff                   ???                ;%11111111
fede   ff                   ???                ;%11111111
fedf   ff                   ???                ;%11111111
fee0   ff                   ???                ;%11111111
fee1   ff                   ???                ;%11111111
fee2   ff                   ???                ;%11111111
fee3   ff                   ???                ;%11111111
fee4   ff                   ???                ;%11111111
fee5   ff                   ???                ;%11111111
fee6   ff                   ???                ;%11111111
fee7   ff                   ???                ;%11111111
fee8   ff                   ???                ;%11111111
fee9   ff                   ???                ;%11111111
feea   ff                   ???                ;%11111111
feeb   ff                   ???                ;%11111111
feec   ff                   ???                ;%11111111
feed   ff                   ???                ;%11111111
feee   ff                   ???                ;%11111111
feef   ff                   ???                ;%11111111
fef0   ff                   ???                ;%11111111
fef1   ff                   ???                ;%11111111
fef2   ff                   ???                ;%11111111
fef3   ff                   ???                ;%11111111
fef4   ff                   ???                ;%11111111
fef5   ff                   ???                ;%11111111
fef6   ff                   ???                ;%11111111
fef7   ff                   ???                ;%11111111
fef8   ff                   ???                ;%11111111
fef9   ff                   ???                ;%11111111
fefa   ff                   ???                ;%11111111
fefb   ff                   ???                ;%11111111
fefc   ff                   ???                ;%11111111
fefd   ff                   ???                ;%11111111
fefe   ff                   ???                ;%11111111
feff   ff                   ???                ;%11111111
ff00   a2 fc      lff00     ldx #$fc
ff02   9a                   txs
ff03   a9 95                lda #$95
ff05   8d d0 ff             sta $ffd0
ff08   a0 00                ldy #$00
ff0a   b9 56 ff   lff0a     lda $ff56,y
ff0d   f0 06                beq lff15
ff0f   20 2a ff             jsr lff2a
ff12   c8                   iny
ff13   d0 f5                bne lff0a
ff15   20 39 ff   lff15     jsr lff39
ff18   90 fb                bcc lff15
ff1a   29 df                and #$df
ff1c   c9 57                cmp #$57
ff1e   f0 07                beq lff27
ff20   c9 43                cmp #$43
ff22   d0 dc                bne lff00
ff24   4c 05 fd             jmp lfd05
ff27   4c 74 e2   lff27     jmp le274
ff2a   48         lff2a     pha
ff2b   ad d0 ff   lff2b     lda $ffd0
ff2e   29 02                and #$02
ff30   c9 02                cmp #$02
ff32   d0 f7                bne lff2b
ff34   68                   pla
ff35   8d d1 ff             sta $ffd1
ff38   60                   rts
ff39   ad d0 ff   lff39     lda $ffd0
ff3c   29 01                and #$01
ff3e   c9 01                cmp #$01
ff40   d0 05                bne lff47
ff42   ad d1 ff             lda $ffd1
ff45   38                   sec
ff46   60                   rts
ff47   18         lff47     clc
ff48   60                   rts
ff49   20 39 ff   lff49     jsr lff39
ff4c   90 06                bcc lff54
ff4e   c9 03                cmp #$03
ff50   d0 02                bne lff54
ff52   38                   sec
ff53   60                   rts
ff54   18         lff54     clc
ff55   60                   rts
ff56   0c                   ???                ;%00001100
ff57   43                   ???                ;%01000011 'C'
ff58   6f                   ???                ;%01101111 'o'
ff59   6c 64 20             jmp ($2064)
ff5c   5b                   ???                ;%01011011 '['
ff5d   43                   ???                ;%01000011 'C'
ff5e   5d 20 6f             eor $6f20,x
ff61   72                   ???                ;%01110010 'r'
ff62   20 77 61             jsr $6177
ff65   72                   ???                ;%01110010 'r'
ff66   6d 20 5b             adc $5b20
ff69   57                   ???                ;%01010111 'W'
ff6a   5d 20 73             eor $7320,x
ff6d   74                   ???                ;%01110100 't'
ff6e   61 72                adc ($72,x)
ff70   74                   ???                ;%01110100 't'
ff71   3f                   ???                ;%00111111 '?'
ff72   0d 0a 00             ora $000a
ff75   60                   rts
ff76   60                   rts
ff77   ff                   ???                ;%11111111
ff78   ff                   ???                ;%11111111
ff79   ff                   ???                ;%11111111
ff7a   ff                   ???                ;%11111111
ff7b   ff                   ???                ;%11111111
ff7c   ff                   ???                ;%11111111
ff7d   ff                   ???                ;%11111111
ff7e   ff                   ???                ;%11111111
ff7f   ff                   ???                ;%11111111
ff80   ff                   ???                ;%11111111
ff81   ff                   ???                ;%11111111
ff82   ff                   ???                ;%11111111
ff83   ff                   ???                ;%11111111
ff84   ff                   ???                ;%11111111
ff85   ff                   ???                ;%11111111
ff86   ff                   ???                ;%11111111
ff87   ff                   ???                ;%11111111
ff88   ff                   ???                ;%11111111
ff89   ff                   ???                ;%11111111
ff8a   ff                   ???                ;%11111111
ff8b   ff                   ???                ;%11111111
ff8c   ff                   ???                ;%11111111
ff8d   ff                   ???                ;%11111111
ff8e   ff                   ???                ;%11111111
ff8f   ff                   ???                ;%11111111
ff90   ff                   ???                ;%11111111
ff91   ff                   ???                ;%11111111
ff92   ff                   ???                ;%11111111
ff93   ff                   ???                ;%11111111
ff94   ff                   ???                ;%11111111
ff95   ff                   ???                ;%11111111
ff96   ff                   ???                ;%11111111
ff97   ff                   ???                ;%11111111
ff98   ff                   ???                ;%11111111
ff99   ff                   ???                ;%11111111
ff9a   ff                   ???                ;%11111111
ff9b   ff                   ???                ;%11111111
ff9c   ff                   ???                ;%11111111
ff9d   ff                   ???                ;%11111111
ff9e   ff                   ???                ;%11111111
ff9f   ff                   ???                ;%11111111
ffa0   ff                   ???                ;%11111111
ffa1   ff                   ???                ;%11111111
ffa2   ff                   ???                ;%11111111
ffa3   ff                   ???                ;%11111111
ffa4   ff                   ???                ;%11111111
ffa5   ff                   ???                ;%11111111
ffa6   ff                   ???                ;%11111111
ffa7   ff                   ???                ;%11111111
ffa8   ff                   ???                ;%11111111
ffa9   ff                   ???                ;%11111111
ffaa   ff                   ???                ;%11111111
ffab   ff                   ???                ;%11111111
ffac   ff                   ???                ;%11111111
ffad   ff                   ???                ;%11111111
ffae   ff                   ???                ;%11111111
ffaf   ff                   ???                ;%11111111
ffb0   ff                   ???                ;%11111111
ffb1   ff                   ???                ;%11111111
ffb2   ff                   ???                ;%11111111
ffb3   ff                   ???                ;%11111111
ffb4   ff                   ???                ;%11111111
ffb5   ff                   ???                ;%11111111
ffb6   ff                   ???                ;%11111111
ffb7   ff                   ???                ;%11111111
ffb8   ff                   ???                ;%11111111
ffb9   ff                   ???                ;%11111111
ffba   ff                   ???                ;%11111111
ffbb   ff                   ???                ;%11111111
ffbc   ff                   ???                ;%11111111
ffbd   ff                   ???                ;%11111111
ffbe   ff                   ???                ;%11111111
ffbf   ff                   ???                ;%11111111
ffc0   ff                   ???                ;%11111111
ffc1   ff                   ???                ;%11111111
ffc2   ff                   ???                ;%11111111
ffc3   ff                   ???                ;%11111111
ffc4   ff                   ???                ;%11111111
ffc5   ff                   ???                ;%11111111
ffc6   ff                   ???                ;%11111111
ffc7   ff                   ???                ;%11111111
ffc8   ff                   ???                ;%11111111
ffc9   ff                   ???                ;%11111111
ffca   ff                   ???                ;%11111111
ffcb   ff                   ???                ;%11111111
ffcc   ff                   ???                ;%11111111
ffcd   ff                   ???                ;%11111111
ffce   ff                   ???                ;%11111111
ffcf   ff                   ???                ;%11111111
ffd0   ff                   ???                ;%11111111
ffd1   ff                   ???                ;%11111111
ffd2   ff                   ???                ;%11111111
ffd3   ff                   ???                ;%11111111
ffd4   ff                   ???                ;%11111111
ffd5   ff                   ???                ;%11111111
ffd6   ff                   ???                ;%11111111
ffd7   ff                   ???                ;%11111111
ffd8   ff                   ???                ;%11111111
ffd9   ff                   ???                ;%11111111
ffda   ff                   ???                ;%11111111
ffdb   ff                   ???                ;%11111111
ffdc   ff                   ???                ;%11111111
ffdd   ff                   ???                ;%11111111
ffde   ff                   ???                ;%11111111
ffdf   ff                   ???                ;%11111111
ffe0   ff                   ???                ;%11111111
ffe1   ff                   ???                ;%11111111
ffe2   ff                   ???                ;%11111111
ffe3   ff                   ???                ;%11111111
ffe4   ff                   ???                ;%11111111
ffe5   ff                   ???                ;%11111111
ffe6   ff                   ???                ;%11111111
ffe7   ff                   ???                ;%11111111
ffe8   ff                   ???                ;%11111111
ffe9   ff                   ???                ;%11111111
ffea   ff                   ???                ;%11111111
ffeb   ff                   ???                ;%11111111
ffec   ff                   ???                ;%11111111
ffed   ff                   ???                ;%11111111
ffee   ff                   ???                ;%11111111
ffef   ff                   ???                ;%11111111
fff0   ff                   ???                ;%11111111
fff1   ff                   ???                ;%11111111
fff2   ff                   ???                ;%11111111
fff3   ff                   ???                ;%11111111
fff4   ff                   ???                ;%11111111
fff5   ff                   ???                ;%11111111
fff6   ff                   ???                ;%11111111
fff7   ff                   ???                ;%11111111
fff8   ff                   ???                ;%11111111
fff9   ff                   ???                ;%11111111
fffa   00                   brk
fffb   ff                   ???                ;%11111111
fffc   00                   brk
fffd   ff                   ???                ;%11111111
fffe   00                   brk
ffff   ff                   ???                ;%11111111
                            .end

;auto-generated symbols and labels
 le049      $e049
 le00c      $e00c
 le052      $e052
 le057      $e057
 le0d3      $e0d3
 le113      $e113
 le129      $e129
 le13f      $e13f
 le177      $e177
 le1c4      $e1c4
 le1ce      $e1ce
 le1bb      $e1bb
 le1c7      $e1c7
 le1a6      $e1a6
 le21f      $e21f
 le20a      $e20a
 le1f3      $e1f3
 le203      $e203
 le1ff      $e1ff
 le24c      $e24c
 le24b      $e24b
 le229      $e229
 le22d      $e22d
 lf13b      $f13b
 le238      $e238
 le860      $e860
 le8d7      $e8d7
 le8d9      $e8d9
 le491      $e491
 le8b7      $e8b7
 le274      $e274
 lf947      $f947
 le357      $e357
 le27d      $e27d
 le295      $e295
 le3a6      $e3a6
 le5f6      $e5f6
 le773      $e773
 le432      $e432
 le2e6      $e2e6
 le2d0      $e2d0
 le2d8      $e2d8
 le319      $e319
 le301      $e301
 le1cf      $e1cf
 le311      $e311
 le477      $e477
 le32e      $e32e
 le330      $e330
 le325      $e325
 le359      $e359
 le386      $e386
 le374      $e374
 le383      $e383
 le34b      $e34b
 le351      $e351
 le37c      $e37c
 le85a      $e85a
 lff39      $ff39
 le3a5      $e3a5
 le3ec      $e3ec
 le410      $e410
 le3c4      $e3c4
 le3cc      $e3cc
 le3d7      $e3d7
 le3d6      $e3d6
 le417      $e417
 le42a      $e42a
 le3ff      $e3ff
 le401      $e401
 le3ac      $e3ac
 le408      $e408
 le41b      $e41b
 le3d8      $e3d8
 le3ea      $e3ea
 le45f      $e45f
 le460      $e460
 le44d      $e44d
 le456      $e456
 le436      $e436
 le4a7      $e4a7
 le61a      $e61a
 le4bd      $e4bd
 le4a6      $e4a6
 le4d4      $e4d4
 le4e2      $e4e2
 le52b      $e52b
 le629      $e629
 le4ff      $e4ff
 le501      $e501
 lf952      $f952
 le519      $e519
 le52e      $e52e
 le50c      $e50c
 le54b      $e54b
 le543      $e543
 le540      $e540
 le508      $e508
 le7ad      $e7ad
 le1a1      $e1a1
 le567      $e567
 le212      $e212
 le70e      $e70e
 lebf7      $ebf7
 leaa4      $eaa4
 leaa1      $eaa1
 leb5a      $eb5a
 lf73f      $f73f
 le5b3      $e5b3
 lf7be      $f7be
 leb4f      $eb4f
 le5d1      $e5d1
 le5dc      $e5dc
 lec00      $ec00
 le645      $e645
 le5ff      $e5ff
 le5c2      $e5c2
 le66e      $e66e
 le609      $e609
 le5d9      $e5d9
 le624      $e624
 lff49      $ff49
 le62f      $e62f
 le643      $e643
 le652      $e652
 le269      $e269
 le660      $e660
 le24e      $e24e
 lf3a2      $f3a2
 le67d      $e67d
 lee7c      $ee7c
 le47a      $e47a
 le68a      $e68a
 le6a4      $e6a4
 le6ad      $e6ad
 le711      $e711
 le6c4      $e6c4
 le6c8      $e6c8
 le6eb      $e6eb
 le6d9      $e6d9
 le6f3      $e6f3
 le70d      $e70d
 le719      $e719
 le721      $e721
 leab5      $eab5
 le73f      $e73f
 le748      $e748
 le703      $e703
 le750      $e750
 le75f      $e75f
 le6f0      $e6f0
 le767      $e767
 le602      $e602
 le772      $e772
 le75b      $e75b
 le7a7      $e7a7
 le779      $e779
 lecff      $ecff
 leaa7      $eaa7
 le7c9      $e7c9
 lf768      $f768
 le7e8      $e7e8
 le7da      $e7da
 le7ef      $e7ef
 le805      $e805
 lf090      $f090
 lf27e      $f27e
 lf2df      $f2df
 le8ba      $e8ba
 le87e      $e87e
 le896      $e896
 le87f      $e87f
 le8b1      $e8b1
 le81d      $e81d
 lf962      $f962
 lf0a2      $f0a2
 le852      $e852
 le8d4      $e8d4
 le820      $e820
 le87a      $e87a
 le874      $e874
 le88b      $e88b
 le88c      $e88c
 le8aa      $e8aa
 lf39f      $f39f
 le904      $e904
 le8ab      $e8ab
 le825      $e825
 lf2aa      $f2aa
 le8c1      $e8c1
 le86c      $e86c
 le8f5      $e8f5
 le8ed      $e8ed
 le8eb      $e8eb
 lff2a      $ff2a
 le907      $e907
 le928      $e928
 lebb5      $ebb5
 lefc8      $efc8
 le93a      $e93a
 le948      $e948
 le63b      $e63b
 le979      $e979
 le9d1      $e9d1
 le9a4      $e9a4
 le98d      $e98d
 le998      $e998
 lf0a8      $f0a8
 lf3e7      $f3e7
 le9aa      $e9aa
 lf87b      $f87b
 le9b6      $e9b6
 le8f8      $e8f8
 le9f7      $e9f7
 lebf5      $ebf5
 le94f      $e94f
 le9ea      $e9ea
 lea48      $ea48
 lea02      $ea02
 lea0f      $ea0f
 lea3a      $ea3a
 lea3d      $ea3d
 lea4a      $ea4a
 leab2      $eab2
 lf460      $f460
 lf7ee      $f7ee
 lea8f      $ea8f
 lea8c      $ea8c
 leaae      $eaae
 leab0      $eab0
 leaad      $eaad
 leabb      $eabb
 leb94      $eb94
 leaee      $eaee
 leb47      $eb47
 lead2      $ead2
 leb1e      $eb1e
 leb6c      $eb6c
 leaff      $eaff
 lf241      $f241
 leb71      $eb71
 leb37      $eb37
 leb30      $eb30
 leb6f      $eb6f
 leb7a      $eb7a
 leb28      $eb28
 leb07      $eb07
 leb10      $eb10
 leb4a      $eb4a
 leac0      $eac0
 lf7ae      $f7ae
 leb91      $eb91
 leb78      $eb78
 leba0      $eba0
 led75      $ed75
 lec0c      $ec0c
 leb9d      $eb9d
 lec05      $ec05
 leb98      $eb98
 lebc4      $ebc4
 lebbe      $ebbe
 lebdb      $ebdb
 lec07      $ec07
 ledf9      $edf9
 lefb5      $efb5
 lebe2      $ebe2
 lf012      $f012
 lebe9      $ebe9
 lec1b      $ec1b
 lebf2      $ebf2
 leb11      $eb11
 lec18      $ec18
 lec45      $ec45
 leaa6      $eaa6
 lec4a      $ec4a
 lf78f      $f78f
 leca2      $eca2
 lf7ec      $f7ec
 lecd5      $ecd5
 lf2ae      $f2ae
 lecca      $ecca
 lecda      $ecda
 lece6      $ece6
 leccf      $eccf
 lecef      $ecef
 lf7cf      $f7cf
 led04      $ed04
 lecf2      $ecf2
 led13      $ed13
 led21      $ed21
 led2c      $ed2c
 led22      $ed22
 led3b      $ed3b
 led47      $ed47
 lee0b      $ee0b
 led5d      $ed5d
 led7f      $ed7f
 led6b      $ed6b
 ledcb      $edcb
 led53      $ed53
 led51      $ed51
 led7e      $ed7e
 led8c      $ed8c
 leda2      $eda2
 ledd5      $edd5
 lede6      $ede6
 led6d      $ed6d
 lee06      $ee06
 lee08      $ee08
 lf825      $f825
 ledef      $edef
 lee13      $ee13
 lebef      $ebef
 lee5c      $ee5c
 lee95      $ee95
 lee6b      $ee6b
 lee81      $ee81
 lee50      $ee50
 lee7e      $ee7e
 ledda      $edda
 lee79      $ee79
 lef18      $ef18
 leec4      $eec4
 lef70      $ef70
 leeb4      $eeb4
 lef39      $ef39
 leee7      $eee7
 leefb      $eefb
 leef6      $eef6
 lef6f      $ef6f
 lef3c      $ef3c
 lef36      $ef36
 lef3d      $ef3d
 lef4e      $ef4e
 lef20      $ef20
 lef9c      $ef9c
 lef83      $ef83
 lefa8      $efa8
 lf7d7      $f7d7
 lefff      $efff
 le700      $e700
 lf06e      $f06e
 led06      $ed06
 lefcf      $efcf
 lf037      $f037
 lf76c      $f76c
 lf068      $f068
 lf964      $f964
 lf109      $f109
 lf0c3      $f0c3
 lf0bf      $f0bf
 lf0b2      $f0b2
 lf0c4      $f0c4
 lf0d0      $f0d0
 lf0e1      $f0e1
 lf28c      $f28c
 lf0ec      $f0ec
 lf116      $f116
 lf12b      $f12b
 lf120      $f120
 lf0e9      $f0e9
 lf10b      $f10b
 lf160      $f160
 lf1cd      $f1cd
 lf157      $f157
 lf174      $f174
 lf179      $f179
 lf1c7      $f1c7
 lf16c      $f16c
 lf190      $f190
 lf20c      $f20c
 lf181      $f181
 lf1b8      $f1b8
 lf1c2      $f1c2
 lf185      $f185
 lf1ba      $f1ba
 lf1fc      $f1fc
 lf1e2      $f1e2
 lf1ec      $f1ec
 lf207      $f207
 le1d6      $e1d6
 lf13f      $f13f
 lf261      $f261
 lf290      $f290
 leacf      $eacf
 lf29d      $f29d
 lf294      $f294
 lf2a6      $f2a6
 lf2da      $f2da
 lf2d9      $f2d9
 lf2ef      $f2ef
 lf3a5      $f3a5
 lf098      $f098
 lf363      $f363
 lf310      $f310
 lf329      $f329
 lf30a      $f30a
 lf34c      $f34c
 lf311      $f311
 lf312      $f312
 lf39c      $f39c
 lf386      $f386
 lefc4      $efc4
 lf2a7      $f2a7
 lf383      $f383
 ledf5      $edf5
 lf3b9      $f3b9
 lf4e5      $f4e5
 lf3d1      $f3d1
 lf3fc      $f3fc
 lf3f0      $f3f0
 lf435      $f435
 lf3f6      $f3f6
 lf439      $f439
 lf641      $f641
 lf463      $f463
 lf56f      $f56f
 lf49c      $f49c
 lf468      $f468
 lf441      $f441
 lf48c      $f48c
 lf490      $f490
 lf45b      $f45b
 lf586      $f586
 lf4ec      $f4ec
 lf4a8      $f4a8
 lf4c9      $f4c9
 lf52b      $f52b
 lf50f      $f50f
 lf4cd      $f4cd
 lf51c      $f51c
 lf505      $f505
 lf52a      $f52a
 lf558      $f558
 lf557      $f557
 lf55f      $f55f
 lf58e      $f58e
 lf582      $f582
 lf57c      $f57c
 lf5b8      $f5b8
 lf5bb      $f5bb
 lf6be      $f6be
 lf449      $f449
 lfb62      $fb62
 lf906      $f906
 lf640      $f640
 lf667      $f667
 lf616      $f616
 lf61b      $f61b
 lf730      $f730
 lf55d      $f55d
 lf634      $f634
 lf61e      $f61e
 lf68a      $f68a
 lf674      $f674
 lf68f      $f68f
 lf67f      $f67f
 lf4e9      $f4e9
 lf79f      $f79f
 lf6a8      $f6a8
 lf470      $f470
 lf6c1      $f6c1
 lf72b      $f72b
 lf6e8      $f6e8
 lf6f5      $f6f5
 lf71b      $f71b
 lf71f      $f71f
 lf704      $f704
 lf6d8      $f6d8
 lf6f8      $f6f8
 lf795      $f795
 lf7a4      $f7a4
 lf7ad      $f7ad
 lf54d      $f54d
 lf51e      $f51e
 lf7cb      $f7cb
 lf4c4      $f4c4
 lf7c2      $f7c2
 lf81c      $f81c
 lf844      $f844
 lf822      $f822
 lf7c4      $f7c4
 lf873      $f873
 lf839      $f839
 lf531      $f531
 lf845      $f845
 lf87a      $f87a
 lf87f      $f87f
 lf895      $f895
 lf88e      $f88e
 lf892      $f892
 lf897      $f897
 lf8f2      $f8f2
 lf8c9      $f8c9
 lf8cf      $f8cf
 lf8bb      $f8bb
 lf8b6      $f8b6
 lf8b8      $f8b8
 lf8bd      $f8bd
 lf919      $f919
 lf8d1      $f8d1
 lf8ea      $f8ea
 lf8e3      $f8e3
 lf6ad      $f6ad
 lf8da      $f8da
 lf692      $f692
 lf8ef      $f8ef
 lfae3      $fae3
 lf8f9      $f8f9
 lf928      $f928
 lf936      $f936
 lf95f      $f95f
 lf7dc      $f7dc
 lf96c      $f96c
 lf97d      $f97d
 lfa7d      $fa7d
 lf985      $f985
 lf98e      $f98e
 lf5ef      $f5ef
 lf9b7      $f9b7
 lf9ad      $f9ad
 lf9a6      $f9a6
 lf9b4      $f9b4
 lf99b      $f99b
 lf990      $f990
 lf442      $f442
 lf9cc      $f9cc
 lf9cd      $f9cd
 lf9d8      $f9d8
 lf9eb      $f9eb
 lf9e9      $f9e9
 lfa0c      $fa0c
 lf9ef      $f9ef
 lfa0e      $fa0e
 lfa15      $fa15
 lfa2f      $fa2f
 lfa3f      $fa3f
 lfa4c      $fa4c
 lfa80      $fa80
 lfa5c      $fa5c
 lfa68      $fa68
 lfa85      $fa85
 lfa94      $fa94
 lfb0f      $fb0f
 lfab3      $fab3
 lf4e7      $f4e7
 lfacd      $facd
 lf856      $f856
 lf791      $f791
 lf5b1      $f5b1
 lfaed      $faed
 lfa83      $fa83
 lfa88      $fa88
 lfb1f      $fb1f
 lf7b6      $f7b6
 lf7a2      $f7a2
 lfb2d      $fb2d
 lf684      $f684
 lfb2a      $fb2a
 lfb3d      $fb3d
 lf44c      $f44c
 lfb78      $fb78
 lf669      $f669
 lf762      $f762
 lfb7c      $fb7c
 lf75f      $f75f
 lfb8b      $fb8b
 lfb9c      $fb9c
 lfb8f      $fb8f
 lfbd2      $fbd2
 lfbab      $fbab
 lf6b6      $f6b6
 lfc29      $fc29
 lfc2c      $fc2c
 lfc39      $fc39
 lfbf7      $fbf7
 lfbed      $fbed
 lfc68      $fc68
 lfc95      $fc95
 lfca3      $fca3
 lfcb6      $fcb6
 lfcbc      $fcbc
 lfce8      $fce8
 lfcf9      $fcf9
 lfce2      $fce2
 lfd42      $fd42
 lfcfe      $fcfe
 lfd9e      $fd9e
 lfd8d      $fd8d
 lfdaa      $fdaa
 lfd87      $fd87
 lfde6      $fde6
 lfdb6      $fdb6
 lfdd9      $fdd9
 lfdf9      $fdf9
 le463      $e463
 lfeca      $feca
 lff11      $ff11
 lff15      $ff15
 lff0a      $ff0a
 lff27      $ff27
 lff00      $ff00
 lfd05      $fd05
 lff2b      $ff2b
 lff47      $ff47
 lff54      $ff54
